                              1 ;--------------------------------------------------------
                              2 ; File Created by SDCC : free open source ANSI-C Compiler
                              3 ; Version 3.5.0 #9253 (Aug  4 2015) (Mac OS X x86_64)
                              4 ; This file was generated Fri Aug  7 15:43:52 2015
                              5 ;--------------------------------------------------------
                              6 	.module explosions
                              7 	.optsdcc -mz80
                              8 	
                              9 ;--------------------------------------------------------
                             10 ; Public variables in this module
                             11 ;--------------------------------------------------------
                             12 	.globl _cpct_getScreenPtr
                             13 	.globl _cpct_drawSprite
                             14 	.globl _explosiones_lastUpdated
                             15 	.globl _explosion_sprite
                             16 	.globl _explosiones_activas
                             17 	.globl _explosiones
                             18 	.globl _init_explosions
                             19 	.globl _create_explosion
                             20 	.globl _update_explosions
                             21 	.globl _draw_explosions
                             22 ;--------------------------------------------------------
                             23 ; special function registers
                             24 ;--------------------------------------------------------
                             25 ;--------------------------------------------------------
                             26 ; ram data
                             27 ;--------------------------------------------------------
                             28 	.area _DATA
   0000                      29 _explosiones::
   0000                      30 	.ds 480
   01E0                      31 _explosiones_activas::
   01E0                      32 	.ds 1
   01E1                      33 _explosion_sprite::
   01E1                      34 	.ds 16
   01F1                      35 _explosiones_lastUpdated::
   01F1                      36 	.ds 4
                             37 ;--------------------------------------------------------
                             38 ; ram data
                             39 ;--------------------------------------------------------
                             40 	.area _INITIALIZED
                             41 ;--------------------------------------------------------
                             42 ; absolute external ram data
                             43 ;--------------------------------------------------------
                             44 	.area _DABS (ABS)
                             45 ;--------------------------------------------------------
                             46 ; global & static initialisations
                             47 ;--------------------------------------------------------
                             48 	.area _HOME
                             49 	.area _GSINIT
                             50 	.area _GSFINAL
                             51 	.area _GSINIT
                             52 ;--------------------------------------------------------
                             53 ; Home
                             54 ;--------------------------------------------------------
                             55 	.area _HOME
                             56 	.area _HOME
                             57 ;--------------------------------------------------------
                             58 ; code
                             59 ;--------------------------------------------------------
                             60 	.area _CODE
                             61 ;src/entities/explosions.c:20: void init_explosions(){
                             62 ;	---------------------------------
                             63 ; Function init_explosions
                             64 ; ---------------------------------
   0000                      65 _init_explosions::
                             66 ;src/entities/explosions.c:23: for (i=0;i<MAX_EXPLOSIONES;i++){
   0000 16 00         [ 7]   67 	ld	d,#0x00
   0002                      68 00102$:
                             69 ;src/entities/explosions.c:24: explosiones[i].activo=0;
   0002 6A            [ 4]   70 	ld	l,d
   0003 26 00         [ 7]   71 	ld	h,#0x00
   0005 29            [11]   72 	add	hl, hl
   0006 29            [11]   73 	add	hl, hl
   0007 29            [11]   74 	add	hl, hl
   0008 29            [11]   75 	add	hl, hl
   0009 3Er00         [ 7]   76 	ld	a,#<(_explosiones)
   000B 85            [ 4]   77 	add	a, l
   000C 4F            [ 4]   78 	ld	c,a
   000D 3Es00         [ 7]   79 	ld	a,#>(_explosiones)
   000F 8C            [ 4]   80 	adc	a, h
   0010 47            [ 4]   81 	ld	b,a
   0011 69            [ 4]   82 	ld	l, c
   0012 60            [ 4]   83 	ld	h, b
   0013 23            [ 6]   84 	inc	hl
   0014 23            [ 6]   85 	inc	hl
   0015 36 00         [10]   86 	ld	(hl),#0x00
                             87 ;src/entities/explosions.c:25: explosiones[i].tipo=0;
   0017 AF            [ 4]   88 	xor	a, a
   0018 02            [ 7]   89 	ld	(bc),a
                             90 ;src/entities/explosions.c:26: explosiones[i].fase=0;
   0019 69            [ 4]   91 	ld	l, c
   001A 60            [ 4]   92 	ld	h, b
   001B 23            [ 6]   93 	inc	hl
   001C 36 00         [10]   94 	ld	(hl),#0x00
                             95 ;src/entities/explosions.c:27: explosiones[i].x=0;
   001E 69            [ 4]   96 	ld	l, c
   001F 60            [ 4]   97 	ld	h, b
   0020 23            [ 6]   98 	inc	hl
   0021 23            [ 6]   99 	inc	hl
   0022 23            [ 6]  100 	inc	hl
   0023 36 00         [10]  101 	ld	(hl),#0x00
                            102 ;src/entities/explosions.c:28: explosiones[i].y=0;
   0025 21 04 00      [10]  103 	ld	hl,#0x0004
   0028 09            [11]  104 	add	hl,bc
   0029 36 00         [10]  105 	ld	(hl),#0x00
                            106 ;src/entities/explosions.c:29: explosiones[i].h=0;
   002B 21 05 00      [10]  107 	ld	hl,#0x0005
   002E 09            [11]  108 	add	hl,bc
   002F 36 00         [10]  109 	ld	(hl),#0x00
                            110 ;src/entities/explosions.c:30: explosiones[i].w=0;
   0031 21 06 00      [10]  111 	ld	hl,#0x0006
   0034 09            [11]  112 	add	hl,bc
   0035 36 00         [10]  113 	ld	(hl),#0x00
                            114 ;src/entities/explosions.c:31: explosiones[i].lastmoved=0;
   0037 21 0C 00      [10]  115 	ld	hl,#0x000C
   003A 09            [11]  116 	add	hl,bc
   003B AF            [ 4]  117 	xor	a, a
   003C 77            [ 7]  118 	ld	(hl), a
   003D 23            [ 6]  119 	inc	hl
   003E 77            [ 7]  120 	ld	(hl), a
   003F 23            [ 6]  121 	inc	hl
   0040 AF            [ 4]  122 	xor	a, a
   0041 77            [ 7]  123 	ld	(hl), a
   0042 23            [ 6]  124 	inc	hl
   0043 77            [ 7]  125 	ld	(hl), a
                            126 ;src/entities/explosions.c:23: for (i=0;i<MAX_EXPLOSIONES;i++){
   0044 14            [ 4]  127 	inc	d
   0045 7A            [ 4]  128 	ld	a,d
   0046 D6 1E         [ 7]  129 	sub	a, #0x1E
   0048 38 B8         [12]  130 	jr	C,00102$
                            131 ;src/entities/explosions.c:33: explosiones_activas=0;
   004A 21rE0r01      [10]  132 	ld	hl,#_explosiones_activas + 0
   004D 36 00         [10]  133 	ld	(hl), #0x00
                            134 ;src/entities/explosions.c:34: explosion_sprite[0][0]= (u8*) explosion02000;
   004F 21r00r00      [10]  135 	ld	hl,#_explosion02000
   0052 22rE1r01      [16]  136 	ld	(_explosion_sprite), hl
                            137 ;src/entities/explosions.c:35: explosion_sprite[0][1]= (u8*) explosion02001;
   0055 21r00r00      [10]  138 	ld	hl,#_explosion02001
   0058 22rE3r01      [16]  139 	ld	((_explosion_sprite + 0x0002)), hl
                            140 ;src/entities/explosions.c:36: explosion_sprite[0][2]= (u8*) explosion02002;
   005B 21r00r00      [10]  141 	ld	hl,#_explosion02002
   005E 22rE5r01      [16]  142 	ld	((_explosion_sprite + 0x0004)), hl
                            143 ;src/entities/explosions.c:37: explosion_sprite[0][3]= (u8*) explosion02003;
   0061 21r00r00      [10]  144 	ld	hl,#_explosion02003
   0064 22rE7r01      [16]  145 	ld	((_explosion_sprite + 0x0006)), hl
                            146 ;src/entities/explosions.c:38: explosion_sprite[1][0]= (u8*) toque000;
   0067 21r00r00      [10]  147 	ld	hl,#_toque000
   006A 22rE9r01      [16]  148 	ld	((_explosion_sprite + 0x0008)), hl
                            149 ;src/entities/explosions.c:39: explosion_sprite[1][1]= (u8*) toque001;
   006D 21r00r00      [10]  150 	ld	hl,#_toque001
   0070 22rEBr01      [16]  151 	ld	((_explosion_sprite + 0x000a)), hl
                            152 ;src/entities/explosions.c:40: explosion_sprite[1][2]= (u8*) toque002;
   0073 21r00r00      [10]  153 	ld	hl,#_toque002
   0076 22rEDr01      [16]  154 	ld	((_explosion_sprite + 0x000c)), hl
                            155 ;src/entities/explosions.c:41: explosion_sprite[1][3]= (u8*) toque003;
   0079 21r00r00      [10]  156 	ld	hl,#_toque003
   007C 22rEFr01      [16]  157 	ld	((_explosion_sprite + 0x000e)), hl
   007F C9            [10]  158 	ret
                            159 ;src/entities/explosions.c:47: void create_explosion(u8 x, u8 y, u8 tipo){
                            160 ;	---------------------------------
                            161 ; Function create_explosion
                            162 ; ---------------------------------
   0080                     163 _create_explosion::
   0080 DD E5         [15]  164 	push	ix
   0082 DD 21 00 00   [14]  165 	ld	ix,#0
   0086 DD 39         [15]  166 	add	ix,sp
   0088 F5            [11]  167 	push	af
                            168 ;src/entities/explosions.c:50: while (explosiones[i].activo==1) { 
   0089 01r00r00      [10]  169 	ld	bc,#_explosiones+0
   008C 1E 00         [ 7]  170 	ld	e,#0x00
   008E                     171 00101$:
   008E 6B            [ 4]  172 	ld	l,e
   008F 26 00         [ 7]  173 	ld	h,#0x00
   0091 29            [11]  174 	add	hl, hl
   0092 29            [11]  175 	add	hl, hl
   0093 29            [11]  176 	add	hl, hl
   0094 29            [11]  177 	add	hl, hl
   0095 09            [11]  178 	add	hl,bc
   0096 E3            [19]  179 	ex	(sp), hl
   0097 E1            [10]  180 	pop	hl
   0098 E5            [11]  181 	push	hl
   0099 23            [ 6]  182 	inc	hl
   009A 23            [ 6]  183 	inc	hl
   009B 7E            [ 7]  184 	ld	a,(hl)
   009C 3D            [ 4]  185 	dec	a
   009D 20 03         [12]  186 	jr	NZ,00103$
                            187 ;src/entities/explosions.c:51: i++;
   009F 1C            [ 4]  188 	inc	e
   00A0 18 EC         [12]  189 	jr	00101$
   00A2                     190 00103$:
                            191 ;src/entities/explosions.c:53: explosiones[i].activo=1;
   00A2 36 01         [10]  192 	ld	(hl),#0x01
                            193 ;src/entities/explosions.c:54: explosiones[i].tipo=tipo;
   00A4 E1            [10]  194 	pop	hl
   00A5 E5            [11]  195 	push	hl
   00A6 DD 7E 06      [19]  196 	ld	a,6 (ix)
   00A9 77            [ 7]  197 	ld	(hl),a
                            198 ;src/entities/explosions.c:55: explosiones[i].fase=0;
   00AA E1            [10]  199 	pop	hl
   00AB E5            [11]  200 	push	hl
   00AC 23            [ 6]  201 	inc	hl
   00AD 36 00         [10]  202 	ld	(hl),#0x00
                            203 ;src/entities/explosions.c:56: explosiones[i].x=x;
   00AF E1            [10]  204 	pop	hl
   00B0 E5            [11]  205 	push	hl
   00B1 23            [ 6]  206 	inc	hl
   00B2 23            [ 6]  207 	inc	hl
   00B3 23            [ 6]  208 	inc	hl
   00B4 DD 7E 04      [19]  209 	ld	a,4 (ix)
   00B7 77            [ 7]  210 	ld	(hl),a
                            211 ;src/entities/explosions.c:57: explosiones[i].y=y;
   00B8 DD 7E FE      [19]  212 	ld	a,-2 (ix)
   00BB C6 04         [ 7]  213 	add	a, #0x04
   00BD 6F            [ 4]  214 	ld	l,a
   00BE DD 7E FF      [19]  215 	ld	a,-1 (ix)
   00C1 CE 00         [ 7]  216 	adc	a, #0x00
   00C3 67            [ 4]  217 	ld	h,a
   00C4 DD 7E 05      [19]  218 	ld	a,5 (ix)
   00C7 77            [ 7]  219 	ld	(hl),a
                            220 ;src/entities/explosions.c:60: explosiones[i].h=16;
   00C8 DD 7E FE      [19]  221 	ld	a,-2 (ix)
   00CB C6 05         [ 7]  222 	add	a, #0x05
   00CD 6F            [ 4]  223 	ld	l,a
   00CE DD 7E FF      [19]  224 	ld	a,-1 (ix)
   00D1 CE 00         [ 7]  225 	adc	a, #0x00
   00D3 67            [ 4]  226 	ld	h,a
                            227 ;src/entities/explosions.c:61: explosiones[i].w=4;
   00D4 DD 7E FE      [19]  228 	ld	a,-2 (ix)
   00D7 C6 06         [ 7]  229 	add	a, #0x06
   00D9 5F            [ 4]  230 	ld	e,a
   00DA DD 7E FF      [19]  231 	ld	a,-1 (ix)
   00DD CE 00         [ 7]  232 	adc	a, #0x00
   00DF 57            [ 4]  233 	ld	d,a
                            234 ;src/entities/explosions.c:59: if (!tipo){
   00E0 DD 7E 06      [19]  235 	ld	a,6 (ix)
   00E3 B7            [ 4]  236 	or	a, a
   00E4 20 07         [12]  237 	jr	NZ,00105$
                            238 ;src/entities/explosions.c:60: explosiones[i].h=16;
   00E6 36 10         [10]  239 	ld	(hl),#0x10
                            240 ;src/entities/explosions.c:61: explosiones[i].w=4;
   00E8 3E 04         [ 7]  241 	ld	a,#0x04
   00EA 12            [ 7]  242 	ld	(de),a
   00EB 18 05         [12]  243 	jr	00106$
   00ED                     244 00105$:
                            245 ;src/entities/explosions.c:63: explosiones[i].h=8;
   00ED 36 08         [10]  246 	ld	(hl),#0x08
                            247 ;src/entities/explosions.c:64: explosiones[i].w=2;
   00EF 3E 02         [ 7]  248 	ld	a,#0x02
   00F1 12            [ 7]  249 	ld	(de),a
   00F2                     250 00106$:
                            251 ;src/entities/explosions.c:66: explosiones_activas++;
   00F2 21rE0r01      [10]  252 	ld	hl, #_explosiones_activas+0
   00F5 34            [11]  253 	inc	(hl)
   00F6 DD F9         [10]  254 	ld	sp, ix
   00F8 DD E1         [14]  255 	pop	ix
   00FA C9            [10]  256 	ret
                            257 ;src/entities/explosions.c:73: void update_explosions(){
                            258 ;	---------------------------------
                            259 ; Function update_explosions
                            260 ; ---------------------------------
   00FB                     261 _update_explosions::
   00FB DD E5         [15]  262 	push	ix
   00FD DD 21 00 00   [14]  263 	ld	ix,#0
   0101 DD 39         [15]  264 	add	ix,sp
   0103 F5            [11]  265 	push	af
                            266 ;src/entities/explosions.c:75: if (explosiones_activas>0){
   0104 3ArE0r01      [13]  267 	ld	a,(#_explosiones_activas + 0)
   0107 B7            [ 4]  268 	or	a, a
   0108 28 36         [12]  269 	jr	Z,00111$
                            270 ;src/entities/explosions.c:76: for (i=0;i<MAX_EXPLOSIONES;i++){
   010A 0E 00         [ 7]  271 	ld	c,#0x00
   010C                     272 00109$:
                            273 ;src/entities/explosions.c:77: if (explosiones[i].activo==1){
   010C 69            [ 4]  274 	ld	l,c
   010D 26 00         [ 7]  275 	ld	h,#0x00
   010F 29            [11]  276 	add	hl, hl
   0110 29            [11]  277 	add	hl, hl
   0111 29            [11]  278 	add	hl, hl
   0112 29            [11]  279 	add	hl, hl
   0113 3Er00         [ 7]  280 	ld	a,#<(_explosiones)
   0115 85            [ 4]  281 	add	a, l
   0116 DD 77 FE      [19]  282 	ld	-2 (ix),a
   0119 3Es00         [ 7]  283 	ld	a,#>(_explosiones)
   011B 8C            [ 4]  284 	adc	a, h
   011C DD 77 FF      [19]  285 	ld	-1 (ix),a
   011F D1            [10]  286 	pop	de
   0120 D5            [11]  287 	push	de
   0121 13            [ 6]  288 	inc	de
   0122 13            [ 6]  289 	inc	de
   0123 1A            [ 7]  290 	ld	a,(de)
   0124 3D            [ 4]  291 	dec	a
   0125 20 13         [12]  292 	jr	NZ,00110$
                            293 ;src/entities/explosions.c:78: if (explosiones[i].fase<3){
   0127 E1            [10]  294 	pop	hl
   0128 E5            [11]  295 	push	hl
   0129 23            [ 6]  296 	inc	hl
   012A 46            [ 7]  297 	ld	b,(hl)
   012B 78            [ 4]  298 	ld	a,b
   012C D6 03         [ 7]  299 	sub	a, #0x03
   012E 30 04         [12]  300 	jr	NC,00102$
                            301 ;src/entities/explosions.c:79: explosiones[i].fase++;
   0130 04            [ 4]  302 	inc	b
   0131 70            [ 7]  303 	ld	(hl),b
   0132 18 06         [12]  304 	jr	00110$
   0134                     305 00102$:
                            306 ;src/entities/explosions.c:83: explosiones[i].activo=0;
   0134 AF            [ 4]  307 	xor	a, a
   0135 12            [ 7]  308 	ld	(de),a
                            309 ;src/entities/explosions.c:84: explosiones_activas--;
   0136 21rE0r01      [10]  310 	ld	hl, #_explosiones_activas+0
   0139 35            [11]  311 	dec	(hl)
   013A                     312 00110$:
                            313 ;src/entities/explosions.c:76: for (i=0;i<MAX_EXPLOSIONES;i++){
   013A 0C            [ 4]  314 	inc	c
   013B 79            [ 4]  315 	ld	a,c
   013C D6 1E         [ 7]  316 	sub	a, #0x1E
   013E 38 CC         [12]  317 	jr	C,00109$
   0140                     318 00111$:
   0140 DD F9         [10]  319 	ld	sp, ix
   0142 DD E1         [14]  320 	pop	ix
   0144 C9            [10]  321 	ret
                            322 ;src/entities/explosions.c:97: void draw_explosions(u8* screen){
                            323 ;	---------------------------------
                            324 ; Function draw_explosions
                            325 ; ---------------------------------
   0145                     326 _draw_explosions::
   0145 DD E5         [15]  327 	push	ix
   0147 DD 21 00 00   [14]  328 	ld	ix,#0
   014B DD 39         [15]  329 	add	ix,sp
   014D F5            [11]  330 	push	af
   014E 3B            [ 6]  331 	dec	sp
                            332 ;src/entities/explosions.c:103: if (explosiones_activas>0){
   014F 3ArE0r01      [13]  333 	ld	a,(#_explosiones_activas + 0)
   0152 B7            [ 4]  334 	or	a, a
   0153 CArF4r01      [10]  335 	jp	Z,00108$
                            336 ;src/entities/explosions.c:104: for (i=0;i<MAX_EXPLOSIONES;i++){
   0156 0E 00         [ 7]  337 	ld	c,#0x00
   0158                     338 00106$:
                            339 ;src/entities/explosions.c:105: if (explosiones[i].activo==1){
   0158 69            [ 4]  340 	ld	l,c
   0159 26 00         [ 7]  341 	ld	h,#0x00
   015B 29            [11]  342 	add	hl, hl
   015C 29            [11]  343 	add	hl, hl
   015D 29            [11]  344 	add	hl, hl
   015E 29            [11]  345 	add	hl, hl
   015F 3Er00         [ 7]  346 	ld	a,#<(_explosiones)
   0161 85            [ 4]  347 	add	a, l
   0162 DD 77 FE      [19]  348 	ld	-2 (ix),a
   0165 3Es00         [ 7]  349 	ld	a,#>(_explosiones)
   0167 8C            [ 4]  350 	adc	a, h
   0168 DD 77 FF      [19]  351 	ld	-1 (ix),a
   016B DD 6E FE      [19]  352 	ld	l,-2 (ix)
   016E DD 66 FF      [19]  353 	ld	h,-1 (ix)
   0171 23            [ 6]  354 	inc	hl
   0172 23            [ 6]  355 	inc	hl
   0173 7E            [ 7]  356 	ld	a,(hl)
   0174 3D            [ 4]  357 	dec	a
   0175 20 76         [12]  358 	jr	NZ,00107$
                            359 ;src/entities/explosions.c:106: pscreen = cpct_getScreenPtr(screen, explosiones[i].x, explosiones[i].y);
   0177 DD 6E FE      [19]  360 	ld	l,-2 (ix)
   017A DD 66 FF      [19]  361 	ld	h,-1 (ix)
   017D 11 04 00      [10]  362 	ld	de, #0x0004
   0180 19            [11]  363 	add	hl, de
   0181 5E            [ 7]  364 	ld	e,(hl)
   0182 DD 6E FE      [19]  365 	ld	l,-2 (ix)
   0185 DD 66 FF      [19]  366 	ld	h,-1 (ix)
   0188 23            [ 6]  367 	inc	hl
   0189 23            [ 6]  368 	inc	hl
   018A 23            [ 6]  369 	inc	hl
   018B 66            [ 7]  370 	ld	h,(hl)
   018C DD 6E 04      [19]  371 	ld	l,4 (ix)
   018F DD 56 05      [19]  372 	ld	d,5 (ix)
   0192 C5            [11]  373 	push	bc
   0193 7B            [ 4]  374 	ld	a,e
   0194 F5            [11]  375 	push	af
   0195 33            [ 6]  376 	inc	sp
   0196 E5            [11]  377 	push	hl
   0197 33            [ 6]  378 	inc	sp
   0198 62            [ 4]  379 	ld	h, d
   0199 E5            [11]  380 	push	hl
   019A CDr00r00      [17]  381 	call	_cpct_getScreenPtr
   019D C1            [10]  382 	pop	bc
   019E E5            [11]  383 	push	hl
   019F FD E1         [14]  384 	pop	iy
                            385 ;src/entities/explosions.c:107: cpct_drawSprite(explosion_sprite[explosiones[i].tipo][explosiones[i].fase],pscreen,explosiones[i].w,explosiones[i].h);
   01A1 DD 6E FE      [19]  386 	ld	l,-2 (ix)
   01A4 DD 66 FF      [19]  387 	ld	h,-1 (ix)
   01A7 11 05 00      [10]  388 	ld	de, #0x0005
   01AA 19            [11]  389 	add	hl, de
   01AB 46            [ 7]  390 	ld	b,(hl)
   01AC DD 6E FE      [19]  391 	ld	l,-2 (ix)
   01AF DD 66 FF      [19]  392 	ld	h,-1 (ix)
   01B2 11 06 00      [10]  393 	ld	de, #0x0006
   01B5 19            [11]  394 	add	hl, de
   01B6 7E            [ 7]  395 	ld	a,(hl)
   01B7 DD 77 FD      [19]  396 	ld	-3 (ix),a
   01BA DD 6E FE      [19]  397 	ld	l,-2 (ix)
   01BD DD 66 FF      [19]  398 	ld	h,-1 (ix)
   01C0 6E            [ 7]  399 	ld	l,(hl)
   01C1 26 00         [ 7]  400 	ld	h,#0x00
   01C3 29            [11]  401 	add	hl, hl
   01C4 29            [11]  402 	add	hl, hl
   01C5 29            [11]  403 	add	hl, hl
   01C6 3ErE1         [ 7]  404 	ld	a,#<(_explosion_sprite)
   01C8 85            [ 4]  405 	add	a, l
   01C9 5F            [ 4]  406 	ld	e,a
   01CA 3Es01         [ 7]  407 	ld	a,#>(_explosion_sprite)
   01CC 8C            [ 4]  408 	adc	a, h
   01CD 57            [ 4]  409 	ld	d,a
   01CE DD 6E FE      [19]  410 	ld	l,-2 (ix)
   01D1 DD 66 FF      [19]  411 	ld	h,-1 (ix)
   01D4 23            [ 6]  412 	inc	hl
   01D5 7E            [ 7]  413 	ld	a,(hl)
   01D6 87            [ 4]  414 	add	a, a
   01D7 6F            [ 4]  415 	ld	l,a
   01D8 26 00         [ 7]  416 	ld	h,#0x00
   01DA 19            [11]  417 	add	hl,de
   01DB 5E            [ 7]  418 	ld	e,(hl)
   01DC 23            [ 6]  419 	inc	hl
   01DD 56            [ 7]  420 	ld	d,(hl)
   01DE C5            [11]  421 	push	bc
   01DF C5            [11]  422 	push	bc
   01E0 33            [ 6]  423 	inc	sp
   01E1 DD 7E FD      [19]  424 	ld	a,-3 (ix)
   01E4 F5            [11]  425 	push	af
   01E5 33            [ 6]  426 	inc	sp
   01E6 FD E5         [15]  427 	push	iy
   01E8 D5            [11]  428 	push	de
   01E9 CDr00r00      [17]  429 	call	_cpct_drawSprite
   01EC C1            [10]  430 	pop	bc
   01ED                     431 00107$:
                            432 ;src/entities/explosions.c:104: for (i=0;i<MAX_EXPLOSIONES;i++){
   01ED 0C            [ 4]  433 	inc	c
   01EE 79            [ 4]  434 	ld	a,c
   01EF D6 1E         [ 7]  435 	sub	a, #0x1E
   01F1 DAr58r01      [10]  436 	jp	C,00106$
   01F4                     437 00108$:
   01F4 DD F9         [10]  438 	ld	sp, ix
   01F6 DD E1         [14]  439 	pop	ix
   01F8 C9            [10]  440 	ret
                            441 	.area _CODE
                            442 	.area _INITIALIZER
                            443 	.area _CABS (ABS)
