                              1 ;--------------------------------------------------------
                              2 ; File Created by SDCC : free open source ANSI-C Compiler
                              3 ; Version 3.5.0 #9253 (Jul  5 2015) (Mac OS X x86_64)
                              4 ; This file was generated Mon Jul 20 03:16:35 2015
                              5 ;--------------------------------------------------------
                              6 	.module shoots
                              7 	.optsdcc -mz80
                              8 	
                              9 ;--------------------------------------------------------
                             10 ; Public variables in this module
                             11 ;--------------------------------------------------------
                             12 	.globl _get_user_max_shoots
                             13 	.globl _cpct_getScreenPtr
                             14 	.globl _cpct_drawSprite
                             15 	.globl _active_shoots
                             16 	.globl _shoots
                             17 	.globl _init_shoots
                             18 	.globl _create_shoot
                             19 	.globl _update_shoots
                             20 	.globl _draw_shoots
                             21 ;--------------------------------------------------------
                             22 ; special function registers
                             23 ;--------------------------------------------------------
                             24 ;--------------------------------------------------------
                             25 ; ram data
                             26 ;--------------------------------------------------------
                             27 	.area _DATA
   0000                      28 _shoots::
   0000                      29 	.ds 160
   00A0                      30 _active_shoots::
   00A0                      31 	.ds 1
                             32 ;--------------------------------------------------------
                             33 ; ram data
                             34 ;--------------------------------------------------------
                             35 	.area _INITIALIZED
                             36 ;--------------------------------------------------------
                             37 ; absolute external ram data
                             38 ;--------------------------------------------------------
                             39 	.area _DABS (ABS)
                             40 ;--------------------------------------------------------
                             41 ; global & static initialisations
                             42 ;--------------------------------------------------------
                             43 	.area _HOME
                             44 	.area _GSINIT
                             45 	.area _GSFINAL
                             46 	.area _GSINIT
                             47 ;--------------------------------------------------------
                             48 ; Home
                             49 ;--------------------------------------------------------
                             50 	.area _HOME
                             51 	.area _HOME
                             52 ;--------------------------------------------------------
                             53 ; code
                             54 ;--------------------------------------------------------
                             55 	.area _CODE
                             56 ;src/entities/shoots.c:13: void init_shoots(){
                             57 ;	---------------------------------
                             58 ; Function init_shoots
                             59 ; ---------------------------------
   0000                      60 _init_shoots::
                             61 ;src/entities/shoots.c:15: for (k=0;k<MAX_SHOOTS;k++){
   0000 16 00         [ 7]   62 	ld	d,#0x00
   0002                      63 00102$:
                             64 ;src/entities/shoots.c:16: shoots[k].active=0;
   0002 6A            [ 4]   65 	ld	l,d
   0003 26 00         [ 7]   66 	ld	h,#0x00
   0005 29            [11]   67 	add	hl, hl
   0006 29            [11]   68 	add	hl, hl
   0007 29            [11]   69 	add	hl, hl
   0008 29            [11]   70 	add	hl, hl
   0009 3Er00         [ 7]   71 	ld	a,#<(_shoots)
   000B 85            [ 4]   72 	add	a, l
   000C 4F            [ 4]   73 	ld	c,a
   000D 3Es00         [ 7]   74 	ld	a,#>(_shoots)
   000F 8C            [ 4]   75 	adc	a, h
   0010 47            [ 4]   76 	ld	b,a
   0011 21 08 00      [10]   77 	ld	hl,#0x0008
   0014 09            [11]   78 	add	hl,bc
   0015 36 00         [10]   79 	ld	(hl),#0x00
                             80 ;src/entities/shoots.c:17: shoots[k].x=0;
   0017 21 04 00      [10]   81 	ld	hl,#0x0004
   001A 09            [11]   82 	add	hl,bc
   001B 36 00         [10]   83 	ld	(hl),#0x00
                             84 ;src/entities/shoots.c:18: shoots[k].y=0;
   001D 21 05 00      [10]   85 	ld	hl,#0x0005
   0020 09            [11]   86 	add	hl,bc
   0021 36 00         [10]   87 	ld	(hl),#0x00
                             88 ;src/entities/shoots.c:19: shoots[k].w=0;
   0023 21 06 00      [10]   89 	ld	hl,#0x0006
   0026 09            [11]   90 	add	hl,bc
   0027 36 00         [10]   91 	ld	(hl),#0x00
                             92 ;src/entities/shoots.c:20: shoots[k].h=0;
   0029 21 07 00      [10]   93 	ld	hl,#0x0007
   002C 09            [11]   94 	add	hl,bc
   002D 36 00         [10]   95 	ld	(hl),#0x00
                             96 ;src/entities/shoots.c:21: shoots[k].frame=0;
   002F 21 0A 00      [10]   97 	ld	hl,#0x000A
   0032 09            [11]   98 	add	hl,bc
   0033 36 00         [10]   99 	ld	(hl),#0x00
                            100 ;src/entities/shoots.c:22: shoots[k].lastmoved=0;
   0035 21 0C 00      [10]  101 	ld	hl,#0x000C
   0038 09            [11]  102 	add	hl,bc
   0039 AF            [ 4]  103 	xor	a, a
   003A 77            [ 7]  104 	ld	(hl), a
   003B 23            [ 6]  105 	inc	hl
   003C 77            [ 7]  106 	ld	(hl), a
   003D 23            [ 6]  107 	inc	hl
   003E AF            [ 4]  108 	xor	a, a
   003F 77            [ 7]  109 	ld	(hl), a
   0040 23            [ 6]  110 	inc	hl
   0041 77            [ 7]  111 	ld	(hl), a
                            112 ;src/entities/shoots.c:15: for (k=0;k<MAX_SHOOTS;k++){
   0042 14            [ 4]  113 	inc	d
   0043 7A            [ 4]  114 	ld	a,d
   0044 D6 0A         [ 7]  115 	sub	a, #0x0A
   0046 38 BA         [12]  116 	jr	C,00102$
                            117 ;src/entities/shoots.c:24: active_shoots=0;
   0048 21rA0r00      [10]  118 	ld	hl,#_active_shoots + 0
   004B 36 00         [10]  119 	ld	(hl), #0x00
   004D C9            [10]  120 	ret
                            121 ;src/entities/shoots.c:30: void create_shoot(u8 x, u8 y, u8 type){
                            122 ;	---------------------------------
                            123 ; Function create_shoot
                            124 ; ---------------------------------
   004E                     125 _create_shoot::
   004E DD E5         [15]  126 	push	ix
   0050 DD 21 00 00   [14]  127 	ld	ix,#0
   0054 DD 39         [15]  128 	add	ix,sp
   0056 21 F4 FF      [10]  129 	ld	hl,#-12
   0059 39            [11]  130 	add	hl,sp
   005A F9            [ 6]  131 	ld	sp,hl
                            132 ;src/entities/shoots.c:32: if (active_shoots < get_user_max_shoots()){
   005B CDr00r00      [17]  133 	call	_get_user_max_shoots
   005E 55            [ 4]  134 	ld	d,l
   005F FD 21rA0r00   [14]  135 	ld	iy,#_active_shoots
   0063 FD 7E 00      [19]  136 	ld	a,0 (iy)
   0066 92            [ 4]  137 	sub	a, d
   0067 D2r78r01      [10]  138 	jp	NC,00109$
                            139 ;src/entities/shoots.c:34: while (shoots[k].active){
   006A 01r00r00      [10]  140 	ld	bc,#_shoots+0
   006D 16 00         [ 7]  141 	ld	d,#0x00
   006F                     142 00101$:
   006F 6A            [ 4]  143 	ld	l,d
   0070 26 00         [ 7]  144 	ld	h,#0x00
   0072 29            [11]  145 	add	hl, hl
   0073 29            [11]  146 	add	hl, hl
   0074 29            [11]  147 	add	hl, hl
   0075 29            [11]  148 	add	hl, hl
   0076 09            [11]  149 	add	hl,bc
   0077 E3            [19]  150 	ex	(sp), hl
   0078 DD 7E F4      [19]  151 	ld	a,-12 (ix)
   007B C6 08         [ 7]  152 	add	a, #0x08
   007D 6F            [ 4]  153 	ld	l,a
   007E DD 7E F5      [19]  154 	ld	a,-11 (ix)
   0081 CE 00         [ 7]  155 	adc	a, #0x00
   0083 67            [ 4]  156 	ld	h,a
   0084 7E            [ 7]  157 	ld	a,(hl)
   0085 B7            [ 4]  158 	or	a, a
   0086 28 03         [12]  159 	jr	Z,00103$
                            160 ;src/entities/shoots.c:35: k++;
   0088 14            [ 4]  161 	inc	d
   0089 18 E4         [12]  162 	jr	00101$
   008B                     163 00103$:
                            164 ;src/entities/shoots.c:37: shoots[k].active=1;
   008B 36 01         [10]  165 	ld	(hl),#0x01
                            166 ;src/entities/shoots.c:38: shoots[k].frame=0;
   008D DD 7E F4      [19]  167 	ld	a,-12 (ix)
   0090 C6 0A         [ 7]  168 	add	a, #0x0A
   0092 6F            [ 4]  169 	ld	l,a
   0093 DD 7E F5      [19]  170 	ld	a,-11 (ix)
   0096 CE 00         [ 7]  171 	adc	a, #0x00
   0098 67            [ 4]  172 	ld	h,a
   0099 36 00         [10]  173 	ld	(hl),#0x00
                            174 ;src/entities/shoots.c:42: shoots[k].x=x;
   009B DD 7E F4      [19]  175 	ld	a,-12 (ix)
   009E C6 04         [ 7]  176 	add	a, #0x04
   00A0 DD 77 FE      [19]  177 	ld	-2 (ix),a
   00A3 DD 7E F5      [19]  178 	ld	a,-11 (ix)
   00A6 CE 00         [ 7]  179 	adc	a, #0x00
   00A8 DD 77 FF      [19]  180 	ld	-1 (ix),a
                            181 ;src/entities/shoots.c:43: shoots[k].y=y;
   00AB DD 7E F4      [19]  182 	ld	a,-12 (ix)
   00AE C6 05         [ 7]  183 	add	a, #0x05
   00B0 DD 77 FC      [19]  184 	ld	-4 (ix),a
   00B3 DD 7E F5      [19]  185 	ld	a,-11 (ix)
   00B6 CE 00         [ 7]  186 	adc	a, #0x00
   00B8 DD 77 FD      [19]  187 	ld	-3 (ix),a
                            188 ;src/entities/shoots.c:44: shoots[k].w=1;
   00BB DD 7E F4      [19]  189 	ld	a,-12 (ix)
   00BE C6 06         [ 7]  190 	add	a, #0x06
   00C0 DD 77 FA      [19]  191 	ld	-6 (ix),a
   00C3 DD 7E F5      [19]  192 	ld	a,-11 (ix)
   00C6 CE 00         [ 7]  193 	adc	a, #0x00
   00C8 DD 77 FB      [19]  194 	ld	-5 (ix),a
                            195 ;src/entities/shoots.c:45: shoots[k].h=4;
   00CB DD 7E F4      [19]  196 	ld	a,-12 (ix)
   00CE C6 07         [ 7]  197 	add	a, #0x07
   00D0 DD 77 F8      [19]  198 	ld	-8 (ix),a
   00D3 DD 7E F5      [19]  199 	ld	a,-11 (ix)
   00D6 CE 00         [ 7]  200 	adc	a, #0x00
   00D8 DD 77 F9      [19]  201 	ld	-7 (ix),a
                            202 ;src/entities/shoots.c:46: shoots[k].num_frames=1;
   00DB DD 7E F4      [19]  203 	ld	a,-12 (ix)
   00DE C6 09         [ 7]  204 	add	a, #0x09
   00E0 DD 77 F6      [19]  205 	ld	-10 (ix),a
   00E3 DD 7E F5      [19]  206 	ld	a,-11 (ix)
   00E6 CE 00         [ 7]  207 	adc	a, #0x00
   00E8 DD 77 F7      [19]  208 	ld	-9 (ix),a
                            209 ;src/entities/shoots.c:39: switch (type){
   00EB DD 7E 06      [19]  210 	ld	a,6 (ix)
   00EE 3D            [ 4]  211 	dec	a
   00EF 20 35         [12]  212 	jr	NZ,00105$
                            213 ;src/entities/shoots.c:42: shoots[k].x=x;
   00F1 DD 6E FE      [19]  214 	ld	l,-2 (ix)
   00F4 DD 66 FF      [19]  215 	ld	h,-1 (ix)
   00F7 DD 7E 04      [19]  216 	ld	a,4 (ix)
   00FA 77            [ 7]  217 	ld	(hl),a
                            218 ;src/entities/shoots.c:43: shoots[k].y=y;
   00FB DD 6E FC      [19]  219 	ld	l,-4 (ix)
   00FE DD 66 FD      [19]  220 	ld	h,-3 (ix)
   0101 DD 7E 05      [19]  221 	ld	a,5 (ix)
   0104 77            [ 7]  222 	ld	(hl),a
                            223 ;src/entities/shoots.c:44: shoots[k].w=1;
   0105 DD 6E FA      [19]  224 	ld	l,-6 (ix)
   0108 DD 66 FB      [19]  225 	ld	h,-5 (ix)
   010B 36 01         [10]  226 	ld	(hl),#0x01
                            227 ;src/entities/shoots.c:45: shoots[k].h=4;
   010D DD 6E F8      [19]  228 	ld	l,-8 (ix)
   0110 DD 66 F9      [19]  229 	ld	h,-7 (ix)
   0113 36 04         [10]  230 	ld	(hl),#0x04
                            231 ;src/entities/shoots.c:46: shoots[k].num_frames=1;
   0115 DD 6E F6      [19]  232 	ld	l,-10 (ix)
   0118 DD 66 F7      [19]  233 	ld	h,-9 (ix)
   011B 36 01         [10]  234 	ld	(hl),#0x01
                            235 ;src/entities/shoots.c:47: shoots[k].sprite[0]= (u8*) bullet02_0;
   011D E1            [10]  236 	pop	hl
   011E E5            [11]  237 	push	hl
   011F 36r00         [10]  238 	ld	(hl),#<(_bullet02_0)
   0121 23            [ 6]  239 	inc	hl
   0122 36s00         [10]  240 	ld	(hl),#>(_bullet02_0)
                            241 ;src/entities/shoots.c:48: break;
   0124 18 4E         [12]  242 	jr	00106$
                            243 ;src/entities/shoots.c:49: default:
   0126                     244 00105$:
                            245 ;src/entities/shoots.c:50: shoots[k].x=x;
   0126 DD 6E FE      [19]  246 	ld	l,-2 (ix)
   0129 DD 66 FF      [19]  247 	ld	h,-1 (ix)
   012C DD 7E 04      [19]  248 	ld	a,4 (ix)
   012F 77            [ 7]  249 	ld	(hl),a
                            250 ;src/entities/shoots.c:51: shoots[k].y=y;
   0130 DD 6E FC      [19]  251 	ld	l,-4 (ix)
   0133 DD 66 FD      [19]  252 	ld	h,-3 (ix)
   0136 DD 7E 05      [19]  253 	ld	a,5 (ix)
   0139 77            [ 7]  254 	ld	(hl),a
                            255 ;src/entities/shoots.c:52: shoots[k].w=1;
   013A DD 6E FA      [19]  256 	ld	l,-6 (ix)
   013D DD 66 FB      [19]  257 	ld	h,-5 (ix)
   0140 36 01         [10]  258 	ld	(hl),#0x01
                            259 ;src/entities/shoots.c:53: shoots[k].h=8;
   0142 DD 6E F8      [19]  260 	ld	l,-8 (ix)
   0145 DD 66 F9      [19]  261 	ld	h,-7 (ix)
   0148 36 08         [10]  262 	ld	(hl),#0x08
                            263 ;src/entities/shoots.c:54: shoots[k].num_frames=2;
   014A DD 6E F6      [19]  264 	ld	l,-10 (ix)
   014D DD 66 F7      [19]  265 	ld	h,-9 (ix)
   0150 36 02         [10]  266 	ld	(hl),#0x02
                            267 ;src/entities/shoots.c:55: shoots[k].sprite[0]= (u8*) bullet01_0;
   0152 E1            [10]  268 	pop	hl
   0153 E5            [11]  269 	push	hl
   0154 36r00         [10]  270 	ld	(hl),#<(_bullet01_0)
   0156 23            [ 6]  271 	inc	hl
   0157 36s00         [10]  272 	ld	(hl),#>(_bullet01_0)
                            273 ;src/entities/shoots.c:56: shoots[k].sprite[1]= (u8*) bullet01_1;
   0159 DD 7E F4      [19]  274 	ld	a,-12 (ix)
   015C C6 02         [ 7]  275 	add	a, #0x02
   015E DD 77 F6      [19]  276 	ld	-10 (ix),a
   0161 DD 7E F5      [19]  277 	ld	a,-11 (ix)
   0164 CE 00         [ 7]  278 	adc	a, #0x00
   0166 DD 77 F7      [19]  279 	ld	-9 (ix),a
   0169 DD 6E F6      [19]  280 	ld	l,-10 (ix)
   016C DD 66 F7      [19]  281 	ld	h,-9 (ix)
   016F 36r00         [10]  282 	ld	(hl),#<(_bullet01_1)
   0171 23            [ 6]  283 	inc	hl
   0172 36s00         [10]  284 	ld	(hl),#>(_bullet01_1)
                            285 ;src/entities/shoots.c:58: }
   0174                     286 00106$:
                            287 ;src/entities/shoots.c:59: active_shoots++;
   0174 21rA0r00      [10]  288 	ld	hl, #_active_shoots+0
   0177 34            [11]  289 	inc	(hl)
   0178                     290 00109$:
   0178 DD F9         [10]  291 	ld	sp, ix
   017A DD E1         [14]  292 	pop	ix
   017C C9            [10]  293 	ret
                            294 ;src/entities/shoots.c:68: void update_shoots(){
                            295 ;	---------------------------------
                            296 ; Function update_shoots
                            297 ; ---------------------------------
   017D                     298 _update_shoots::
   017D DD E5         [15]  299 	push	ix
   017F DD 21 00 00   [14]  300 	ld	ix,#0
   0183 DD 39         [15]  301 	add	ix,sp
   0185 F5            [11]  302 	push	af
                            303 ;src/entities/shoots.c:71: if (active_shoots>0){
   0186 3ArA0r00      [13]  304 	ld	a,(#_active_shoots + 0)
   0189 B7            [ 4]  305 	or	a, a
   018A 28 6C         [12]  306 	jr	Z,00113$
                            307 ;src/entities/shoots.c:72: for (i=0;i<MAX_SHOOTS;i++){
   018C 0E 00         [ 7]  308 	ld	c,#0x00
   018E                     309 00111$:
                            310 ;src/entities/shoots.c:73: if (shoots[i].active){
   018E 69            [ 4]  311 	ld	l,c
   018F 26 00         [ 7]  312 	ld	h,#0x00
   0191 29            [11]  313 	add	hl, hl
   0192 29            [11]  314 	add	hl, hl
   0193 29            [11]  315 	add	hl, hl
   0194 29            [11]  316 	add	hl, hl
   0195 3Er00         [ 7]  317 	ld	a,#<(_shoots)
   0197 85            [ 4]  318 	add	a, l
   0198 DD 77 FE      [19]  319 	ld	-2 (ix),a
   019B 3Es00         [ 7]  320 	ld	a,#>(_shoots)
   019D 8C            [ 4]  321 	adc	a, h
   019E DD 77 FF      [19]  322 	ld	-1 (ix),a
   01A1 DD 7E FE      [19]  323 	ld	a,-2 (ix)
   01A4 C6 08         [ 7]  324 	add	a, #0x08
   01A6 5F            [ 4]  325 	ld	e,a
   01A7 DD 7E FF      [19]  326 	ld	a,-1 (ix)
   01AA CE 00         [ 7]  327 	adc	a, #0x00
   01AC 57            [ 4]  328 	ld	d,a
   01AD 1A            [ 7]  329 	ld	a,(de)
   01AE B7            [ 4]  330 	or	a, a
   01AF 28 41         [12]  331 	jr	Z,00112$
                            332 ;src/entities/shoots.c:74: shoots[i].y-=SHOOT_JUMP;
   01B1 DD 7E FE      [19]  333 	ld	a,-2 (ix)
   01B4 C6 05         [ 7]  334 	add	a, #0x05
   01B6 6F            [ 4]  335 	ld	l,a
   01B7 DD 7E FF      [19]  336 	ld	a,-1 (ix)
   01BA CE 00         [ 7]  337 	adc	a, #0x00
   01BC 67            [ 4]  338 	ld	h,a
   01BD 7E            [ 7]  339 	ld	a,(hl)
   01BE C6 F6         [ 7]  340 	add	a,#0xF6
   01C0 47            [ 4]  341 	ld	b,a
   01C1 70            [ 7]  342 	ld	(hl),b
                            343 ;src/entities/shoots.c:75: if (shoots[i].y<200){
   01C2 78            [ 4]  344 	ld	a,b
   01C3 D6 C8         [ 7]  345 	sub	a, #0xC8
   01C5 30 25         [12]  346 	jr	NC,00104$
                            347 ;src/entities/shoots.c:76: shoots[i].frame++;
   01C7 DD 7E FE      [19]  348 	ld	a,-2 (ix)
   01CA C6 0A         [ 7]  349 	add	a, #0x0A
   01CC 5F            [ 4]  350 	ld	e,a
   01CD DD 7E FF      [19]  351 	ld	a,-1 (ix)
   01D0 CE 00         [ 7]  352 	adc	a, #0x00
   01D2 57            [ 4]  353 	ld	d,a
   01D3 1A            [ 7]  354 	ld	a,(de)
   01D4 47            [ 4]  355 	ld	b,a
   01D5 04            [ 4]  356 	inc	b
   01D6 78            [ 4]  357 	ld	a,b
   01D7 12            [ 7]  358 	ld	(de),a
                            359 ;src/entities/shoots.c:77: if (shoots[i].frame==shoots[i].num_frames)
   01D8 FD E1         [14]  360 	pop	iy
   01DA FD E5         [15]  361 	push	iy
   01DC FD 7E 09      [19]  362 	ld	a,9 (iy)
   01DF DD 77 FE      [19]  363 	ld	-2 (ix),a
   01E2 78            [ 4]  364 	ld	a,b
   01E3 DD 96 FE      [19]  365 	sub	a, -2 (ix)
   01E6 20 0A         [12]  366 	jr	NZ,00112$
                            367 ;src/entities/shoots.c:78: shoots[i].frame=0;
   01E8 AF            [ 4]  368 	xor	a, a
   01E9 12            [ 7]  369 	ld	(de),a
   01EA 18 06         [12]  370 	jr	00112$
   01EC                     371 00104$:
                            372 ;src/entities/shoots.c:81: shoots[i].active=0;
   01EC AF            [ 4]  373 	xor	a, a
   01ED 12            [ 7]  374 	ld	(de),a
                            375 ;src/entities/shoots.c:82: active_shoots--;
   01EE 21rA0r00      [10]  376 	ld	hl, #_active_shoots+0
   01F1 35            [11]  377 	dec	(hl)
   01F2                     378 00112$:
                            379 ;src/entities/shoots.c:72: for (i=0;i<MAX_SHOOTS;i++){
   01F2 0C            [ 4]  380 	inc	c
   01F3 79            [ 4]  381 	ld	a,c
   01F4 D6 0A         [ 7]  382 	sub	a, #0x0A
   01F6 38 96         [12]  383 	jr	C,00111$
   01F8                     384 00113$:
   01F8 DD F9         [10]  385 	ld	sp, ix
   01FA DD E1         [14]  386 	pop	ix
   01FC C9            [10]  387 	ret
                            388 ;src/entities/shoots.c:94: void draw_shoots(u8* screen){
                            389 ;	---------------------------------
                            390 ; Function draw_shoots
                            391 ; ---------------------------------
   01FD                     392 _draw_shoots::
   01FD DD E5         [15]  393 	push	ix
   01FF DD 21 00 00   [14]  394 	ld	ix,#0
   0203 DD 39         [15]  395 	add	ix,sp
   0205 F5            [11]  396 	push	af
   0206 F5            [11]  397 	push	af
   0207 3B            [ 6]  398 	dec	sp
                            399 ;src/entities/shoots.c:99: if (active_shoots>0){
   0208 3ArA0r00      [13]  400 	ld	a,(#_active_shoots + 0)
   020B B7            [ 4]  401 	or	a, a
   020C CAr97r02      [10]  402 	jp	Z,00108$
                            403 ;src/entities/shoots.c:100: for (k=0;k<MAX_SHOOTS;k++){
   020F 0E 00         [ 7]  404 	ld	c,#0x00
   0211                     405 00106$:
                            406 ;src/entities/shoots.c:101: if (shoots[k].active){
   0211 69            [ 4]  407 	ld	l,c
   0212 26 00         [ 7]  408 	ld	h,#0x00
   0214 29            [11]  409 	add	hl, hl
   0215 29            [11]  410 	add	hl, hl
   0216 29            [11]  411 	add	hl, hl
   0217 29            [11]  412 	add	hl, hl
   0218 3Er00         [ 7]  413 	ld	a,#<(_shoots)
   021A 85            [ 4]  414 	add	a, l
   021B DD 77 FB      [19]  415 	ld	-5 (ix),a
   021E 3Es00         [ 7]  416 	ld	a,#>(_shoots)
   0220 8C            [ 4]  417 	adc	a, h
   0221 DD 77 FC      [19]  418 	ld	-4 (ix),a
   0224 E1            [10]  419 	pop	hl
   0225 E5            [11]  420 	push	hl
   0226 11 08 00      [10]  421 	ld	de, #0x0008
   0229 19            [11]  422 	add	hl, de
   022A 7E            [ 7]  423 	ld	a,(hl)
   022B B7            [ 4]  424 	or	a, a
   022C 28 62         [12]  425 	jr	Z,00107$
                            426 ;src/entities/shoots.c:102: pscreen = cpct_getScreenPtr(screen, shoots[k].x, shoots[k].y);
   022E E1            [10]  427 	pop	hl
   022F E5            [11]  428 	push	hl
   0230 11 05 00      [10]  429 	ld	de, #0x0005
   0233 19            [11]  430 	add	hl, de
   0234 56            [ 7]  431 	ld	d,(hl)
   0235 E1            [10]  432 	pop	hl
   0236 E5            [11]  433 	push	hl
   0237 23            [ 6]  434 	inc	hl
   0238 23            [ 6]  435 	inc	hl
   0239 23            [ 6]  436 	inc	hl
   023A 23            [ 6]  437 	inc	hl
   023B 5E            [ 7]  438 	ld	e,(hl)
   023C E5            [11]  439 	push	hl
   023D DD 6E 04      [19]  440 	ld	l,4 (ix)
   0240 DD 66 05      [19]  441 	ld	h,5 (ix)
   0243 E5            [11]  442 	push	hl
   0244 FD E1         [14]  443 	pop	iy
   0246 E1            [10]  444 	pop	hl
   0247 C5            [11]  445 	push	bc
   0248 D5            [11]  446 	push	de
   0249 FD E5         [15]  447 	push	iy
   024B CDr00r00      [17]  448 	call	_cpct_getScreenPtr
   024E F1            [10]  449 	pop	af
   024F F1            [10]  450 	pop	af
   0250 C1            [10]  451 	pop	bc
   0251 EB            [ 4]  452 	ex	de,hl
                            453 ;src/entities/shoots.c:103: cpct_drawSprite(shoots[k].sprite[shoots[k].frame],pscreen,shoots[k].w,shoots[k].h);
   0252 FD E1         [14]  454 	pop	iy
   0254 FD E5         [15]  455 	push	iy
   0256 FD 7E 07      [19]  456 	ld	a,7 (iy)
   0259 DD 77 FD      [19]  457 	ld	-3 (ix),a
   025C E1            [10]  458 	pop	hl
   025D E5            [11]  459 	push	hl
   025E C5            [11]  460 	push	bc
   025F 01 06 00      [10]  461 	ld	bc, #0x0006
   0262 09            [11]  462 	add	hl, bc
   0263 C1            [10]  463 	pop	bc
   0264 46            [ 7]  464 	ld	b,(hl)
   0265 DD 73 FE      [19]  465 	ld	-2 (ix),e
   0268 DD 72 FF      [19]  466 	ld	-1 (ix),d
   026B E1            [10]  467 	pop	hl
   026C E5            [11]  468 	push	hl
   026D 11 0A 00      [10]  469 	ld	de, #0x000A
   0270 19            [11]  470 	add	hl, de
   0271 7E            [ 7]  471 	ld	a,(hl)
   0272 87            [ 4]  472 	add	a, a
   0273 5F            [ 4]  473 	ld	e,a
   0274 E1            [10]  474 	pop	hl
   0275 E5            [11]  475 	push	hl
   0276 16 00         [ 7]  476 	ld	d,#0x00
   0278 19            [11]  477 	add	hl, de
   0279 5E            [ 7]  478 	ld	e,(hl)
   027A 23            [ 6]  479 	inc	hl
   027B 56            [ 7]  480 	ld	d,(hl)
   027C C5            [11]  481 	push	bc
   027D DD 7E FD      [19]  482 	ld	a,-3 (ix)
   0280 F5            [11]  483 	push	af
   0281 33            [ 6]  484 	inc	sp
   0282 C5            [11]  485 	push	bc
   0283 33            [ 6]  486 	inc	sp
   0284 DD 6E FE      [19]  487 	ld	l,-2 (ix)
   0287 DD 66 FF      [19]  488 	ld	h,-1 (ix)
   028A E5            [11]  489 	push	hl
   028B D5            [11]  490 	push	de
   028C CDr00r00      [17]  491 	call	_cpct_drawSprite
   028F C1            [10]  492 	pop	bc
   0290                     493 00107$:
                            494 ;src/entities/shoots.c:100: for (k=0;k<MAX_SHOOTS;k++){
   0290 0C            [ 4]  495 	inc	c
   0291 79            [ 4]  496 	ld	a,c
   0292 D6 0A         [ 7]  497 	sub	a, #0x0A
   0294 DAr11r02      [10]  498 	jp	C,00106$
   0297                     499 00108$:
   0297 DD F9         [10]  500 	ld	sp, ix
   0299 DD E1         [14]  501 	pop	ix
   029B C9            [10]  502 	ret
                            503 	.area _CODE
                            504 	.area _INITIALIZER
                            505 	.area _CABS (ABS)
