                              1 ;--------------------------------------------------------
                              2 ; File Created by SDCC : free open source ANSI-C Compiler
                              3 ; Version 3.5.0 #9253 (Jul  5 2015) (Mac OS X x86_64)
                              4 ; This file was generated Mon Jul  6 15:49:38 2015
                              5 ;--------------------------------------------------------
                              6 	.module user
                              7 	.optsdcc -mz80
                              8 	
                              9 ;--------------------------------------------------------
                             10 ; Public variables in this module
                             11 ;--------------------------------------------------------
                             12 	.globl _create_enemy_group
                             13 	.globl _create_enemy
                             14 	.globl _create_shoot
                             15 	.globl _cpct_getScreenPtr
                             16 	.globl _cpct_drawSprite
                             17 	.globl _cpct_isKeyPressed
                             18 	.globl _cpct_scanKeyboard_f
                             19 	.globl _rand
                             20 	.globl _shoot_type
                             21 	.globl _user
                             22 	.globl _init_user
                             23 	.globl _get_user_max_shoots
                             24 	.globl _update_user
                             25 	.globl _draw_user
                             26 ;--------------------------------------------------------
                             27 ; special function registers
                             28 ;--------------------------------------------------------
                             29 ;--------------------------------------------------------
                             30 ; ram data
                             31 ;--------------------------------------------------------
                             32 	.area _DATA
   0000                      33 _user::
   0000                      34 	.ds 18
   0012                      35 _shoot_type::
   0012                      36 	.ds 1
                             37 ;--------------------------------------------------------
                             38 ; ram data
                             39 ;--------------------------------------------------------
                             40 	.area _INITIALIZED
                             41 ;--------------------------------------------------------
                             42 ; absolute external ram data
                             43 ;--------------------------------------------------------
                             44 	.area _DABS (ABS)
                             45 ;--------------------------------------------------------
                             46 ; global & static initialisations
                             47 ;--------------------------------------------------------
                             48 	.area _HOME
                             49 	.area _GSINIT
                             50 	.area _GSFINAL
                             51 	.area _GSINIT
                             52 ;--------------------------------------------------------
                             53 ; Home
                             54 ;--------------------------------------------------------
                             55 	.area _HOME
                             56 	.area _HOME
                             57 ;--------------------------------------------------------
                             58 ; code
                             59 ;--------------------------------------------------------
                             60 	.area _CODE
                             61 ;src/entities/user.c:9: void init_user(){
                             62 ;	---------------------------------
                             63 ; Function init_user
                             64 ; ---------------------------------
   0000                      65 _init_user::
                             66 ;src/entities/user.c:18: user.w = 6;
   0000 21r08r00      [10]   67 	ld	hl,#_user + 8
   0003 36 06         [10]   68 	ld	(hl),#0x06
                             69 ;src/entities/user.c:19: user.h = 16;
   0005 FD 21r09r00   [14]   70 	ld	iy,#_user + 9
   0009 FD 36 00 10   [19]   71 	ld	0 (iy), #0x10
                             72 ;src/entities/user.c:20: user.x = 39-(user.w/2);
   000D 6E            [ 7]   73 	ld	l,(hl)
   000E CB 3D         [ 8]   74 	srl	l
   0010 3E 27         [ 7]   75 	ld	a,#0x27
   0012 95            [ 4]   76 	sub	a, l
   0013 32r06r00      [13]   77 	ld	(#(_user + 0x0006)),a
                             78 ;src/entities/user.c:21: user.y = 199-(user.h);
   0016 FD 66 00      [19]   79 	ld	h, 0 (iy)
   0019 3E C7         [ 7]   80 	ld	a,#0xC7
   001B 94            [ 4]   81 	sub	a, h
   001C 32r07r00      [13]   82 	ld	(#(_user + 0x0007)),a
                             83 ;src/entities/user.c:22: user.sprite = (u8*) ship03;
   001F 21r00r00      [10]   84 	ld	hl,#_ship03
   0022 22r04r00      [16]   85 	ld	((_user + 0x0004)), hl
                             86 ;src/entities/user.c:24: user.vx = 2;
   0025 21r0Er00      [10]   87 	ld	hl,#_user + 14
   0028 36 02         [10]   88 	ld	(hl),#0x02
                             89 ;src/entities/user.c:25: user.vy = 4;
   002A 21r0Fr00      [10]   90 	ld	hl,#_user + 15
   002D 36 04         [10]   91 	ld	(hl),#0x04
                             92 ;src/entities/user.c:26: user.max_shoots = 10;
   002F 21r11r00      [10]   93 	ld	hl,#_user + 17
   0032 36 0A         [10]   94 	ld	(hl),#0x0A
                             95 ;src/entities/user.c:27: shoot_type = 1;
   0034 21r12r00      [10]   96 	ld	hl,#_shoot_type + 0
   0037 36 01         [10]   97 	ld	(hl), #0x01
   0039 C9            [10]   98 	ret
                             99 ;src/entities/user.c:30: u8 get_user_max_shoots(){
                            100 ;	---------------------------------
                            101 ; Function get_user_max_shoots
                            102 ; ---------------------------------
   003A                     103 _get_user_max_shoots::
                            104 ;src/entities/user.c:31: return user.max_shoots;
   003A 21r11r00      [10]  105 	ld	hl,#_user+17
   003D 6E            [ 7]  106 	ld	l,(hl)
   003E C9            [10]  107 	ret
                            108 ;src/entities/user.c:37: void update_user() {
                            109 ;	---------------------------------
                            110 ; Function update_user
                            111 ; ---------------------------------
   003F                     112 _update_user::
   003F DD E5         [15]  113 	push	ix
   0041 DD 21 00 00   [14]  114 	ld	ix,#0
   0045 DD 39         [15]  115 	add	ix,sp
   0047 F5            [11]  116 	push	af
   0048 3B            [ 6]  117 	dec	sp
                            118 ;src/entities/user.c:41: cpct_scanKeyboard_f();
   0049 CDr00r00      [17]  119 	call	_cpct_scanKeyboard_f
                            120 ;src/entities/user.c:48: if ((cpct_isKeyPressed(Key_Q))){ 
   004C 21 08 08      [10]  121 	ld	hl,#0x0808
   004F E5            [11]  122 	push	hl
   0050 CDr00r00      [17]  123 	call	_cpct_isKeyPressed
   0053 F1            [10]  124 	pop	af
   0054 7D            [ 4]  125 	ld	a,l
   0055 B7            [ 4]  126 	or	a, a
   0056 28 2D         [12]  127 	jr	Z,00105$
                            128 ;src/entities/user.c:49: if ((user.y-user.vy)>0)
   0058 21r07r00      [10]  129 	ld	hl, #(_user + 0x0007) + 0
   005B 5E            [ 7]  130 	ld	e,(hl)
   005C 4B            [ 4]  131 	ld	c,e
   005D 06 00         [ 7]  132 	ld	b,#0x00
   005F 21r0Fr00      [10]  133 	ld	hl, #_user + 15
   0062 56            [ 7]  134 	ld	d,(hl)
   0063 7A            [ 4]  135 	ld	a,d
   0064 6F            [ 4]  136 	ld	l,a
   0065 17            [ 4]  137 	rla
   0066 9F            [ 4]  138 	sbc	a, a
   0067 67            [ 4]  139 	ld	h,a
   0068 79            [ 4]  140 	ld	a,c
   0069 95            [ 4]  141 	sub	a, l
   006A 6F            [ 4]  142 	ld	l,a
   006B 78            [ 4]  143 	ld	a,b
   006C 9C            [ 4]  144 	sbc	a, h
   006D 67            [ 4]  145 	ld	h,a
   006E AF            [ 4]  146 	xor	a, a
   006F BD            [ 4]  147 	cp	a, l
   0070 9C            [ 4]  148 	sbc	a, h
   0071 E2r76r00      [10]  149 	jp	PO, 00185$
   0074 EE 80         [ 7]  150 	xor	a, #0x80
   0076                     151 00185$:
   0076 F2r80r00      [10]  152 	jp	P,00102$
                            153 ;src/entities/user.c:50: user.y = user.y - user.vy;
   0079 7B            [ 4]  154 	ld	a,e
   007A 92            [ 4]  155 	sub	a, d
   007B 32r07r00      [13]  156 	ld	(#(_user + 0x0007)),a
   007E 18 05         [12]  157 	jr	00105$
   0080                     158 00102$:
                            159 ;src/entities/user.c:52: user.y = 0;
   0080 21r07r00      [10]  160 	ld	hl,#(_user + 0x0007)
   0083 36 00         [10]  161 	ld	(hl),#0x00
   0085                     162 00105$:
                            163 ;src/entities/user.c:55: if ((cpct_isKeyPressed(Key_P))){ 
   0085 21 03 08      [10]  164 	ld	hl,#0x0803
   0088 E5            [11]  165 	push	hl
   0089 CDr00r00      [17]  166 	call	_cpct_isKeyPressed
   008C F1            [10]  167 	pop	af
   008D 7D            [ 4]  168 	ld	a,l
   008E B7            [ 4]  169 	or	a, a
   008F 28 3F         [12]  170 	jr	Z,00110$
                            171 ;src/entities/user.c:56: if ((user.x+user.vx<(79-user.w)))
   0091 21r06r00      [10]  172 	ld	hl, #(_user + 0x0006) + 0
   0094 5E            [ 7]  173 	ld	e,(hl)
   0095 4B            [ 4]  174 	ld	c,e
   0096 06 00         [ 7]  175 	ld	b,#0x00
   0098 21r0Er00      [10]  176 	ld	hl, #_user + 14
   009B 56            [ 7]  177 	ld	d,(hl)
   009C 7A            [ 4]  178 	ld	a,d
   009D 6F            [ 4]  179 	ld	l,a
   009E 17            [ 4]  180 	rla
   009F 9F            [ 4]  181 	sbc	a, a
   00A0 67            [ 4]  182 	ld	h,a
   00A1 09            [11]  183 	add	hl,bc
   00A2 4D            [ 4]  184 	ld	c,l
   00A3 44            [ 4]  185 	ld	b,h
   00A4 3Ar08r00      [13]  186 	ld	a,(#_user + 8)
   00A7 DD 77 FF      [19]  187 	ld	-1 (ix), a
   00AA 6F            [ 4]  188 	ld	l, a
   00AB 26 00         [ 7]  189 	ld	h,#0x00
   00AD 3E 4F         [ 7]  190 	ld	a,#0x4F
   00AF 95            [ 4]  191 	sub	a, l
   00B0 6F            [ 4]  192 	ld	l,a
   00B1 3E 00         [ 7]  193 	ld	a,#0x00
   00B3 9C            [ 4]  194 	sbc	a, h
   00B4 67            [ 4]  195 	ld	h,a
   00B5 79            [ 4]  196 	ld	a,c
   00B6 95            [ 4]  197 	sub	a, l
   00B7 78            [ 4]  198 	ld	a,b
   00B8 9C            [ 4]  199 	sbc	a, h
   00B9 E2rBEr00      [10]  200 	jp	PO, 00186$
   00BC EE 80         [ 7]  201 	xor	a, #0x80
   00BE                     202 00186$:
   00BE F2rC8r00      [10]  203 	jp	P,00107$
                            204 ;src/entities/user.c:57: user.x = user.x + user.vx;
   00C1 7B            [ 4]  205 	ld	a,e
   00C2 82            [ 4]  206 	add	a, d
   00C3 32r06r00      [13]  207 	ld	(#(_user + 0x0006)),a
   00C6 18 08         [12]  208 	jr	00110$
   00C8                     209 00107$:
                            210 ;src/entities/user.c:59: user.x = 79-user.w;
   00C8 3E 4F         [ 7]  211 	ld	a,#0x4F
   00CA DD 96 FF      [19]  212 	sub	a, -1 (ix)
   00CD 32r06r00      [13]  213 	ld	(#(_user + 0x0006)),a
   00D0                     214 00110$:
                            215 ;src/entities/user.c:62: if (cpct_isKeyPressed(Key_O)){
   00D0 21 04 04      [10]  216 	ld	hl,#0x0404
   00D3 E5            [11]  217 	push	hl
   00D4 CDr00r00      [17]  218 	call	_cpct_isKeyPressed
   00D7 F1            [10]  219 	pop	af
   00D8 7D            [ 4]  220 	ld	a,l
   00D9 B7            [ 4]  221 	or	a, a
   00DA 28 2D         [12]  222 	jr	Z,00115$
                            223 ;src/entities/user.c:63: if ((user.x-user.vx)>0) 
   00DC 21r06r00      [10]  224 	ld	hl, #(_user + 0x0006) + 0
   00DF 5E            [ 7]  225 	ld	e,(hl)
   00E0 4B            [ 4]  226 	ld	c,e
   00E1 06 00         [ 7]  227 	ld	b,#0x00
   00E3 21r0Er00      [10]  228 	ld	hl, #_user + 14
   00E6 56            [ 7]  229 	ld	d,(hl)
   00E7 7A            [ 4]  230 	ld	a,d
   00E8 6F            [ 4]  231 	ld	l,a
   00E9 17            [ 4]  232 	rla
   00EA 9F            [ 4]  233 	sbc	a, a
   00EB 67            [ 4]  234 	ld	h,a
   00EC 79            [ 4]  235 	ld	a,c
   00ED 95            [ 4]  236 	sub	a, l
   00EE 6F            [ 4]  237 	ld	l,a
   00EF 78            [ 4]  238 	ld	a,b
   00F0 9C            [ 4]  239 	sbc	a, h
   00F1 67            [ 4]  240 	ld	h,a
   00F2 AF            [ 4]  241 	xor	a, a
   00F3 BD            [ 4]  242 	cp	a, l
   00F4 9C            [ 4]  243 	sbc	a, h
   00F5 E2rFAr00      [10]  244 	jp	PO, 00187$
   00F8 EE 80         [ 7]  245 	xor	a, #0x80
   00FA                     246 00187$:
   00FA F2r04r01      [10]  247 	jp	P,00112$
                            248 ;src/entities/user.c:64: user.x = user.x - user.vx;    
   00FD 7B            [ 4]  249 	ld	a,e
   00FE 92            [ 4]  250 	sub	a, d
   00FF 32r06r00      [13]  251 	ld	(#(_user + 0x0006)),a
   0102 18 05         [12]  252 	jr	00115$
   0104                     253 00112$:
                            254 ;src/entities/user.c:66: user.x = 0;
   0104 21r06r00      [10]  255 	ld	hl,#(_user + 0x0006)
   0107 36 00         [10]  256 	ld	(hl),#0x00
   0109                     257 00115$:
                            258 ;src/entities/user.c:69: if (cpct_isKeyPressed(Key_A)){
   0109 21 08 20      [10]  259 	ld	hl,#0x2008
   010C E5            [11]  260 	push	hl
   010D CDr00r00      [17]  261 	call	_cpct_isKeyPressed
   0110 F1            [10]  262 	pop	af
   0111 7D            [ 4]  263 	ld	a,l
   0112 B7            [ 4]  264 	or	a, a
   0113 28 37         [12]  265 	jr	Z,00120$
                            266 ;src/entities/user.c:70: if ((user.y<(199-user.h) ))
   0115 21r07r00      [10]  267 	ld	hl, #(_user + 0x0007) + 0
   0118 5E            [ 7]  268 	ld	e,(hl)
   0119 3Ar09r00      [13]  269 	ld	a,(#_user + 9)
   011C DD 77 FF      [19]  270 	ld	-1 (ix), a
   011F 6F            [ 4]  271 	ld	l, a
   0120 26 00         [ 7]  272 	ld	h,#0x00
   0122 3E C7         [ 7]  273 	ld	a,#0xC7
   0124 95            [ 4]  274 	sub	a, l
   0125 6F            [ 4]  275 	ld	l,a
   0126 3E 00         [ 7]  276 	ld	a,#0x00
   0128 9C            [ 4]  277 	sbc	a, h
   0129 67            [ 4]  278 	ld	h,a
   012A 4B            [ 4]  279 	ld	c,e
   012B 16 00         [ 7]  280 	ld	d,#0x00
   012D 79            [ 4]  281 	ld	a,c
   012E 95            [ 4]  282 	sub	a, l
   012F 7A            [ 4]  283 	ld	a,d
   0130 9C            [ 4]  284 	sbc	a, h
   0131 E2r36r01      [10]  285 	jp	PO, 00188$
   0134 EE 80         [ 7]  286 	xor	a, #0x80
   0136                     287 00188$:
   0136 F2r44r01      [10]  288 	jp	P,00117$
                            289 ;src/entities/user.c:71: user.y = user.y + user.vy;
   0139 21r0Fr00      [10]  290 	ld	hl, #_user + 15
   013C 6E            [ 7]  291 	ld	l,(hl)
   013D 7B            [ 4]  292 	ld	a,e
   013E 85            [ 4]  293 	add	a, l
   013F 32r07r00      [13]  294 	ld	(#(_user + 0x0007)),a
   0142 18 08         [12]  295 	jr	00120$
   0144                     296 00117$:
                            297 ;src/entities/user.c:73: user.y = 199-user.h;
   0144 3E C7         [ 7]  298 	ld	a,#0xC7
   0146 DD 96 FF      [19]  299 	sub	a, -1 (ix)
   0149 32r07r00      [13]  300 	ld	(#(_user + 0x0007)),a
   014C                     301 00120$:
                            302 ;src/entities/user.c:76: if (cpct_isKeyPressed(Key_D)){
   014C 21 07 20      [10]  303 	ld	hl,#0x2007
   014F E5            [11]  304 	push	hl
   0150 CDr00r00      [17]  305 	call	_cpct_isKeyPressed
   0153 F1            [10]  306 	pop	af
   0154 7D            [ 4]  307 	ld	a,l
   0155 B7            [ 4]  308 	or	a, a
   0156 28 1B         [12]  309 	jr	Z,00122$
                            310 ;src/entities/user.c:77: shoot_type=(shoot_type+1)%2;
   0158 FD 21r12r00   [14]  311 	ld	iy,#_shoot_type
   015C FD 6E 00      [19]  312 	ld	l,0 (iy)
   015F 26 00         [ 7]  313 	ld	h,#0x00
   0161 23            [ 6]  314 	inc	hl
   0162 01 02 00      [10]  315 	ld	bc,#0x0002
   0165 C5            [11]  316 	push	bc
   0166 E5            [11]  317 	push	hl
   0167 CDr00r00      [17]  318 	call	__modsint
   016A F1            [10]  319 	pop	af
   016B F1            [10]  320 	pop	af
   016C FD 21r12r00   [14]  321 	ld	iy,#_shoot_type
   0170 FD 75 00      [19]  322 	ld	0 (iy),l
   0173                     323 00122$:
                            324 ;src/entities/user.c:80: if (cpct_isKeyPressed(Key_H)){
   0173 21 05 10      [10]  325 	ld	hl,#0x1005
   0176 E5            [11]  326 	push	hl
   0177 CDr00r00      [17]  327 	call	_cpct_isKeyPressed
   017A F1            [10]  328 	pop	af
   017B 7D            [ 4]  329 	ld	a,l
   017C B7            [ 4]  330 	or	a, a
   017D 28 3D         [12]  331 	jr	Z,00124$
                            332 ;src/entities/user.c:81: create_enemy((rand()%80),(rand()%199),(rand()%2));
   017F CDr00r00      [17]  333 	call	_rand
   0182 01 02 00      [10]  334 	ld	bc,#0x0002
   0185 C5            [11]  335 	push	bc
   0186 E5            [11]  336 	push	hl
   0187 CDr00r00      [17]  337 	call	__modsint
   018A F1            [10]  338 	pop	af
   018B F1            [10]  339 	pop	af
   018C DD 75 FF      [19]  340 	ld	-1 (ix),l
   018F CDr00r00      [17]  341 	call	_rand
   0192 01 C7 00      [10]  342 	ld	bc,#0x00C7
   0195 C5            [11]  343 	push	bc
   0196 E5            [11]  344 	push	hl
   0197 CDr00r00      [17]  345 	call	__modsint
   019A F1            [10]  346 	pop	af
   019B F1            [10]  347 	pop	af
   019C 5D            [ 4]  348 	ld	e,l
   019D D5            [11]  349 	push	de
   019E CDr00r00      [17]  350 	call	_rand
   01A1 01 50 00      [10]  351 	ld	bc,#0x0050
   01A4 C5            [11]  352 	push	bc
   01A5 E5            [11]  353 	push	hl
   01A6 CDr00r00      [17]  354 	call	__modsint
   01A9 F1            [10]  355 	pop	af
   01AA F1            [10]  356 	pop	af
   01AB D1            [10]  357 	pop	de
   01AC 55            [ 4]  358 	ld	d,l
   01AD DD 7E FF      [19]  359 	ld	a,-1 (ix)
   01B0 F5            [11]  360 	push	af
   01B1 33            [ 6]  361 	inc	sp
   01B2 7B            [ 4]  362 	ld	a,e
   01B3 F5            [11]  363 	push	af
   01B4 33            [ 6]  364 	inc	sp
   01B5 D5            [11]  365 	push	de
   01B6 33            [ 6]  366 	inc	sp
   01B7 CDr00r00      [17]  367 	call	_create_enemy
   01BA F1            [10]  368 	pop	af
   01BB 33            [ 6]  369 	inc	sp
   01BC                     370 00124$:
                            371 ;src/entities/user.c:83: if (cpct_isKeyPressed(Key_J)){
   01BC 21 05 20      [10]  372 	ld	hl,#0x2005
   01BF E5            [11]  373 	push	hl
   01C0 CDr00r00      [17]  374 	call	_cpct_isKeyPressed
   01C3 F1            [10]  375 	pop	af
   01C4 7D            [ 4]  376 	ld	a,l
   01C5 B7            [ 4]  377 	or	a, a
   01C6 CAr6Br02      [10]  378 	jp	Z,00126$
                            379 ;src/entities/user.c:84: x=rand()%80;
   01C9 CDr00r00      [17]  380 	call	_rand
   01CC 01 50 00      [10]  381 	ld	bc,#0x0050
   01CF C5            [11]  382 	push	bc
   01D0 E5            [11]  383 	push	hl
   01D1 CDr00r00      [17]  384 	call	__modsint
   01D4 F1            [10]  385 	pop	af
   01D5 F1            [10]  386 	pop	af
   01D6 DD 75 FE      [19]  387 	ld	-2 (ix),l
                            388 ;src/entities/user.c:85: y=rand()%199;
   01D9 CDr00r00      [17]  389 	call	_rand
   01DC 01 C7 00      [10]  390 	ld	bc,#0x00C7
   01DF C5            [11]  391 	push	bc
   01E0 E5            [11]  392 	push	hl
   01E1 CDr00r00      [17]  393 	call	__modsint
   01E4 F1            [10]  394 	pop	af
   01E5 F1            [10]  395 	pop	af
   01E6 DD 75 FD      [19]  396 	ld	-3 (ix),l
                            397 ;src/entities/user.c:86: create_enemy(x,y,(rand()%2));
   01E9 CDr00r00      [17]  398 	call	_rand
   01EC 01 02 00      [10]  399 	ld	bc,#0x0002
   01EF C5            [11]  400 	push	bc
   01F0 E5            [11]  401 	push	hl
   01F1 CDr00r00      [17]  402 	call	__modsint
   01F4 F1            [10]  403 	pop	af
   01F5 F1            [10]  404 	pop	af
   01F6 65            [ 4]  405 	ld	h,l
   01F7 E5            [11]  406 	push	hl
   01F8 33            [ 6]  407 	inc	sp
   01F9 DD 66 FD      [19]  408 	ld	h,-3 (ix)
   01FC DD 6E FE      [19]  409 	ld	l,-2 (ix)
   01FF E5            [11]  410 	push	hl
   0200 CDr00r00      [17]  411 	call	_create_enemy
   0203 F1            [10]  412 	pop	af
   0204 33            [ 6]  413 	inc	sp
                            414 ;src/entities/user.c:87: create_enemy(x+8,y,(rand()%2));
   0205 CDr00r00      [17]  415 	call	_rand
   0208 01 02 00      [10]  416 	ld	bc,#0x0002
   020B C5            [11]  417 	push	bc
   020C E5            [11]  418 	push	hl
   020D CDr00r00      [17]  419 	call	__modsint
   0210 F1            [10]  420 	pop	af
   0211 F1            [10]  421 	pop	af
   0212 65            [ 4]  422 	ld	h,l
   0213 DD 7E FE      [19]  423 	ld	a,-2 (ix)
   0216 C6 08         [ 7]  424 	add	a, #0x08
   0218 57            [ 4]  425 	ld	d,a
   0219 E5            [11]  426 	push	hl
   021A 33            [ 6]  427 	inc	sp
   021B DD 7E FD      [19]  428 	ld	a,-3 (ix)
   021E F5            [11]  429 	push	af
   021F 33            [ 6]  430 	inc	sp
   0220 D5            [11]  431 	push	de
   0221 33            [ 6]  432 	inc	sp
   0222 CDr00r00      [17]  433 	call	_create_enemy
   0225 F1            [10]  434 	pop	af
   0226 33            [ 6]  435 	inc	sp
                            436 ;src/entities/user.c:88: create_enemy(x+16,y,(rand()%2));
   0227 CDr00r00      [17]  437 	call	_rand
   022A 01 02 00      [10]  438 	ld	bc,#0x0002
   022D C5            [11]  439 	push	bc
   022E E5            [11]  440 	push	hl
   022F CDr00r00      [17]  441 	call	__modsint
   0232 F1            [10]  442 	pop	af
   0233 F1            [10]  443 	pop	af
   0234 65            [ 4]  444 	ld	h,l
   0235 DD 7E FE      [19]  445 	ld	a,-2 (ix)
   0238 C6 10         [ 7]  446 	add	a, #0x10
   023A 57            [ 4]  447 	ld	d,a
   023B E5            [11]  448 	push	hl
   023C 33            [ 6]  449 	inc	sp
   023D DD 7E FD      [19]  450 	ld	a,-3 (ix)
   0240 F5            [11]  451 	push	af
   0241 33            [ 6]  452 	inc	sp
   0242 D5            [11]  453 	push	de
   0243 33            [ 6]  454 	inc	sp
   0244 CDr00r00      [17]  455 	call	_create_enemy
   0247 F1            [10]  456 	pop	af
   0248 33            [ 6]  457 	inc	sp
                            458 ;src/entities/user.c:89: create_enemy(x+24,y,(rand()%2));
   0249 CDr00r00      [17]  459 	call	_rand
   024C 01 02 00      [10]  460 	ld	bc,#0x0002
   024F C5            [11]  461 	push	bc
   0250 E5            [11]  462 	push	hl
   0251 CDr00r00      [17]  463 	call	__modsint
   0254 F1            [10]  464 	pop	af
   0255 F1            [10]  465 	pop	af
   0256 65            [ 4]  466 	ld	h,l
   0257 DD 7E FE      [19]  467 	ld	a,-2 (ix)
   025A C6 18         [ 7]  468 	add	a, #0x18
   025C 57            [ 4]  469 	ld	d,a
   025D E5            [11]  470 	push	hl
   025E 33            [ 6]  471 	inc	sp
   025F DD 7E FD      [19]  472 	ld	a,-3 (ix)
   0262 F5            [11]  473 	push	af
   0263 33            [ 6]  474 	inc	sp
   0264 D5            [11]  475 	push	de
   0265 33            [ 6]  476 	inc	sp
   0266 CDr00r00      [17]  477 	call	_create_enemy
   0269 F1            [10]  478 	pop	af
   026A 33            [ 6]  479 	inc	sp
   026B                     480 00126$:
                            481 ;src/entities/user.c:91: if (cpct_isKeyPressed(Key_K)){
   026B 21 04 20      [10]  482 	ld	hl,#0x2004
   026E E5            [11]  483 	push	hl
   026F CDr00r00      [17]  484 	call	_cpct_isKeyPressed
   0272 F1            [10]  485 	pop	af
   0273 7D            [ 4]  486 	ld	a,l
   0274 B7            [ 4]  487 	or	a, a
   0275 28 3F         [12]  488 	jr	Z,00128$
                            489 ;src/entities/user.c:92: create_enemy_group((rand()%80),(rand()%199),(rand()%2),4);
   0277 CDr00r00      [17]  490 	call	_rand
   027A 01 02 00      [10]  491 	ld	bc,#0x0002
   027D C5            [11]  492 	push	bc
   027E E5            [11]  493 	push	hl
   027F CDr00r00      [17]  494 	call	__modsint
   0282 F1            [10]  495 	pop	af
   0283 F1            [10]  496 	pop	af
   0284 DD 75 FF      [19]  497 	ld	-1 (ix),l
   0287 CDr00r00      [17]  498 	call	_rand
   028A 01 C7 00      [10]  499 	ld	bc,#0x00C7
   028D C5            [11]  500 	push	bc
   028E E5            [11]  501 	push	hl
   028F CDr00r00      [17]  502 	call	__modsint
   0292 F1            [10]  503 	pop	af
   0293 E3            [19]  504 	ex	(sp),hl
   0294 CDr00r00      [17]  505 	call	_rand
   0297 11 50 00      [10]  506 	ld	de,#0x0050
   029A D5            [11]  507 	push	de
   029B E5            [11]  508 	push	hl
   029C CDr00r00      [17]  509 	call	__modsint
   029F F1            [10]  510 	pop	af
   02A0 F1            [10]  511 	pop	af
   02A1 EB            [ 4]  512 	ex	de,hl
   02A2 C1            [10]  513 	pop	bc
   02A3 3E 04         [ 7]  514 	ld	a,#0x04
   02A5 F5            [11]  515 	push	af
   02A6 33            [ 6]  516 	inc	sp
   02A7 DD 7E FF      [19]  517 	ld	a,-1 (ix)
   02AA F5            [11]  518 	push	af
   02AB 33            [ 6]  519 	inc	sp
   02AC C5            [11]  520 	push	bc
   02AD D5            [11]  521 	push	de
   02AE CDr00r00      [17]  522 	call	_create_enemy_group
   02B1 21 06 00      [10]  523 	ld	hl,#6
   02B4 39            [11]  524 	add	hl,sp
   02B5 F9            [ 6]  525 	ld	sp,hl
   02B6                     526 00128$:
                            527 ;src/entities/user.c:95: if (cpct_isKeyPressed(Key_Space)){
   02B6 21 05 80      [10]  528 	ld	hl,#0x8005
   02B9 E5            [11]  529 	push	hl
   02BA CDr00r00      [17]  530 	call	_cpct_isKeyPressed
   02BD F1            [10]  531 	pop	af
   02BE 7D            [ 4]  532 	ld	a,l
   02BF B7            [ 4]  533 	or	a, a
   02C0 28 1B         [12]  534 	jr	Z,00131$
                            535 ;src/entities/user.c:96: create_shoot(user.x+3, user.y-1, shoot_type);
   02C2 3Ar07r00      [13]  536 	ld	a, (#_user + 7)
   02C5 5F            [ 4]  537 	ld	e,a
   02C6 1D            [ 4]  538 	dec	e
   02C7 3Ar06r00      [13]  539 	ld	a, (#_user + 6)
   02CA 57            [ 4]  540 	ld	d,a
   02CB 14            [ 4]  541 	inc	d
   02CC 14            [ 4]  542 	inc	d
   02CD 14            [ 4]  543 	inc	d
   02CE 3Ar12r00      [13]  544 	ld	a,(_shoot_type)
   02D1 F5            [11]  545 	push	af
   02D2 33            [ 6]  546 	inc	sp
   02D3 7B            [ 4]  547 	ld	a,e
   02D4 F5            [11]  548 	push	af
   02D5 33            [ 6]  549 	inc	sp
   02D6 D5            [11]  550 	push	de
   02D7 33            [ 6]  551 	inc	sp
   02D8 CDr00r00      [17]  552 	call	_create_shoot
   02DB F1            [10]  553 	pop	af
   02DC 33            [ 6]  554 	inc	sp
   02DD                     555 00131$:
   02DD DD F9         [10]  556 	ld	sp, ix
   02DF DD E1         [14]  557 	pop	ix
   02E1 C9            [10]  558 	ret
                            559 ;src/entities/user.c:101: void draw_user(u8* screen){
                            560 ;	---------------------------------
                            561 ; Function draw_user
                            562 ; ---------------------------------
   02E2                     563 _draw_user::
   02E2 DD E5         [15]  564 	push	ix
   02E4 DD 21 00 00   [14]  565 	ld	ix,#0
   02E8 DD 39         [15]  566 	add	ix,sp
                            567 ;src/entities/user.c:103: pscreen = cpct_getScreenPtr(screen, user.x, user.y);
   02EA 21r07r00      [10]  568 	ld	hl, #_user + 7
   02ED 4E            [ 7]  569 	ld	c,(hl)
   02EE 21r06r00      [10]  570 	ld	hl, #_user + 6
   02F1 66            [ 7]  571 	ld	h,(hl)
   02F2 DD 5E 04      [19]  572 	ld	e,4 (ix)
   02F5 DD 56 05      [19]  573 	ld	d,5 (ix)
   02F8 79            [ 4]  574 	ld	a,c
   02F9 F5            [11]  575 	push	af
   02FA 33            [ 6]  576 	inc	sp
   02FB E5            [11]  577 	push	hl
   02FC 33            [ 6]  578 	inc	sp
   02FD D5            [11]  579 	push	de
   02FE CDr00r00      [17]  580 	call	_cpct_getScreenPtr
   0301 F1            [10]  581 	pop	af
   0302 F1            [10]  582 	pop	af
   0303 EB            [ 4]  583 	ex	de,hl
                            584 ;src/entities/user.c:104: cpct_drawSprite( (u8*) user.sprite,pscreen,user.w,user.h);
   0304 21r09r00      [10]  585 	ld	hl, #_user + 9
   0307 4E            [ 7]  586 	ld	c,(hl)
   0308 21r08r00      [10]  587 	ld	hl, #_user + 8
   030B 46            [ 7]  588 	ld	b,(hl)
   030C 2Ar04r00      [16]  589 	ld	hl, (#_user + 4)
   030F E5            [11]  590 	push	hl
   0310 FD E1         [14]  591 	pop	iy
   0312 79            [ 4]  592 	ld	a,c
   0313 F5            [11]  593 	push	af
   0314 33            [ 6]  594 	inc	sp
   0315 C5            [11]  595 	push	bc
   0316 33            [ 6]  596 	inc	sp
   0317 D5            [11]  597 	push	de
   0318 FD E5         [15]  598 	push	iy
   031A CDr00r00      [17]  599 	call	_cpct_drawSprite
   031D 21 06 00      [10]  600 	ld	hl,#6
   0320 39            [11]  601 	add	hl,sp
   0321 F9            [ 6]  602 	ld	sp,hl
   0322 DD E1         [14]  603 	pop	ix
   0324 C9            [10]  604 	ret
                            605 	.area _CODE
                            606 	.area _INITIALIZER
                            607 	.area _CABS (ABS)
