ASxxxx Assembler V02.00 + NoICE + SDCC mods  (Zilog Z80 / Hitachi HD64180), page 1.
Hexadecimal [16-Bits]



                              1 .globl _cpc_memset
   0000                       2 _cpc_memset::
                              3 
                              4 ;; guardo la dirección de la pila
                              5 ;;	LD DE, SP  
                              6 ;; Recover parameters from stack
                              7 ;;   ld   hl, #2       ;; [10] Make HL point to the byte where parameters start in the
                              8 ;;   add  hl, sp       ;; [11] ... stack (first 2 bytes are return address)
                              9 ;;  ld    e, (hl)     ;; [ 7] DE = Pointer to first byte in memory for memset
                             10 ;;   inc  hl           ;; [ 6]
                             11 ;;   ld    d, (hl)     ;; [ 7] 
                             12 ;;   inc  hl           ;; [ 6]         
                             13 ;;   ld 	hl, #0
                             14 ;;  	LD BC, 0x1800   ; Size of screen
                             15 ;;  	LD SP, 0x4000   ; Start of screen
                             16 ;;  	LOOP:
                             17 ;;  	PUSH HL
                             18 ;;  	DEC BC
                             19 ;;  	JNZ LOOP
                             20 ;;  	LD SP, DE
   0000 C9            [10]   21   	ret
                             22 
                             23 .globl _set_stack
   0001                      24 _set_stack::
   0001 C1            [10]   25 	pop bc
   0002 E1            [10]   26 	pop hl
   0003 F9            [ 6]   27 	ld sp, hl
   0004 E5            [11]   28 	push hl
   0005 C5            [11]   29 	push bc
   0006 C9            [10]   30 	ret
                             31 
                             32 ;******************************
                             33 ; 	unsigned char fastCollision(unsigned char x1,unsigned char y1,unsigned char w1,unsigned char h1,unsigned char x2,unsigned char y2,unsigned char w2,unsigned char h2){
                             34 ; 	Descripción:	Devuelve 1 si se ha producido una colisión y 0 en caso contrario
                             35 ;	Entrada:	- Coordenada x objeto 1
                             36 ;				- Coordenada y objeto 1
                             37 ;				- Ancho objeto 1
                             38 ;				- Alto objeto 1
                             39 ;				- Coordenada x objeto 1
                             40 ;				- Coordenada y objeto 1
                             41 ;				- Ancho objeto 1
                             42 ;				- Alto objeto 1
                             43 ;	Salida:		- HL = 1 si se ha producido una colisión, HL = 0 en caso contrario
                             44 ;	Modificados: 
                             45 ;
                             46 ; @JohnLobo Nov15  
                             47 ;******************************
                             48 .globl _fast_collision
   0007                      49 _fast_collision::	
                             50 
   0007 DD 21 02 00   [14]   51 	ld ix,#2
   000B DD 39         [15]   52 	add ix,sp
                             53 	
   000D DD 7E 00      [19]   54 	ld a,0 (ix)				;recupero la coordenada x1
   0010 67            [ 4]   55 	ld h,a
ASxxxx Assembler V02.00 + NoICE + SDCC mods  (Zilog Z80 / Hitachi HD64180), page 2.
Hexadecimal [16-Bits]



   0011 DD 7E 02      [19]   56 	ld a,2 (ix)				;recupero el ancho 1
   0014 84            [ 4]   57 	add a,h
   0015 6F            [ 4]   58 	ld l,a
   0016 DD 7E 04      [19]   59 	ld a,4 (ix)				;recupero la coordenada x2
   0019 47            [ 4]   60 	ld b,a
   001A DD 7E 06      [19]   61 	ld a,6 (ix)				;recupero el ancho 2
   001D 80            [ 4]   62 	add a,b
   001E 4F            [ 4]   63 	ld c,a
   001F CD 45 00      [17]   64 	call #solseg
   0022 30 1C         [12]   65 	jr nc, no_choca
   0024 DD 7E 01      [19]   66 	ld a,1 (ix)				;recupero la coordenada y1
   0027 67            [ 4]   67 	ld h,a
   0028 DD 7E 03      [19]   68 	ld a,3 (ix)				;recupero el alto 1
   002B 84            [ 4]   69 	add a,h
   002C 6F            [ 4]   70 	ld l,a
   002D DD 7E 05      [19]   71 	ld a,5 (ix)				;recupero la coordenada y2
   0030 47            [ 4]   72 	ld b,a
   0031 DD 7E 07      [19]   73 	ld a,7 (ix)				;recupero el alto 2
   0034 80            [ 4]   74 	add a,b
   0035 4F            [ 4]   75 	ld c,a
   0036 CD 45 00      [17]   76 	call #solseg
   0039 30 05         [12]   77 	jr nc, no_choca
   003B 26 00         [ 7]   78 	ld h,#0
   003D 2E 01         [ 7]   79 	ld l,#1
   003F C9            [10]   80 	ret
   0040                      81 no_choca:
   0040 26 00         [ 7]   82 	ld h,#0
   0042 2E 00         [ 7]   83 	ld l,#0
   0044 C9            [10]   84 	ret
                             85 
   0045                      86 solseg:
   0045 79            [ 4]   87 	ld a,c					;solapamaiento
   0046 BC            [ 4]   88 	cp h
   0047 38 02         [12]   89 	jr c, #solseg1			;no hay colisión continua
   0049 7D            [ 4]   90 	ld a,l
   004A B8            [ 4]   91 	cp b
   004B                      92 solseg1:
   004B 3F            [ 4]   93 	ccf						;complemento carry
   004C C9            [10]   94 	ret
                             95 
                             96 
                             97 ;******************************
                             98 ; 	unsigned char detectColision(unsigned char x1,unsigned char y1,unsigned char w1,unsigned char h1,unsigned char x2,unsigned, char y2,unsigned char w2,unsigned char h2){
                             99 ;	return ((x1 < x2 + w2) &&
                            100 ;	(x1 + w1 > x2) &&
                            101 ;	(y1 < y2 + h2) &&
                            102 ;	(h1 + y1 > y2));
                            103 ;
                            104 ; 	Descripción:	Devuelve la dirección de pantalla correspondiente a las coordenadas x,y pasadas 
                            105 ;					como parámetro
                            106 ;	Entrada:	- Coordenada x objeto 1
                            107 ;				- Coordenada y objeto 1
                            108 ;				- Ancho objeto 1
                            109 ;				- Alto objeto 1
                            110 ;				- Coordenada x objeto 1
ASxxxx Assembler V02.00 + NoICE + SDCC mods  (Zilog Z80 / Hitachi HD64180), page 3.
Hexadecimal [16-Bits]



                            111 ;				- Coordenada y objeto 1
                            112 ;				- Ancho objeto 1
                            113 ;				- Alto objeto 1
                            114 ;	Salida:		- HL = 1 si se ha producido una colisión, HL = 0 en caso contrario
                            115 ;	Modificados: 
                            116 ;
                            117 ; @JohnLobo Nov15  
                            118 ;******************************
                            119 .globl _detect_collision
   004D                     120 _detect_collision::		
                            121 	
   004D DD 21 02 00   [14]  122 	ld ix,#2
   0051 DD 39         [15]  123 	add ix,sp
                            124 	
   0053 DD 7E 00      [19]  125 	ld a,0 (ix)				;recupero la coordenada x1
   0056 32 17 01      [13]  126 	ld (#coordenadas1),a
   0059 DD 7E 01      [19]  127 	ld a,1 (ix)				;recupero la coordenada y1
   005C 32 18 01      [13]  128 	ld (#coordenadas1+1),a
   005F DD 7E 02      [19]  129 	ld a,2 (ix)				;recupero el ancho 1
   0062 32 19 01      [13]  130 	ld (#dimensiones1),a
   0065 DD 7E 03      [19]  131 	ld a,3 (ix)				;recupero el alto 1
   0068 32 1A 01      [13]  132 	ld (#dimensiones1+1),a
   006B DD 7E 04      [19]  133 	ld a,4 (ix)				;recupero la coordenada x2
   006E 32 1B 01      [13]  134 	ld (#coordenadas2),a
   0071 DD 7E 05      [19]  135 	ld a,5 (ix)				;recupero la coordenada y2
   0074 32 1C 01      [13]  136 	ld (#coordenadas2+1),a
   0077 DD 7E 06      [19]  137 	ld a,6 (ix)				;recupero el ancho 2
   007A 32 1D 01      [13]  138 	ld (#dimensiones2),a
   007D DD 7E 07      [19]  139 	ld a,7 (ix)				;recupero el alto 2
   0080 32 1E 01      [13]  140 	ld (#dimensiones2+1),a
                            141 
                            142 ; x1 < x2 + w2
   0083 06 00         [ 7]  143 	ld b,#0
   0085 3A 1B 01      [13]  144 	ld a,(#coordenadas2)
   0088 4F            [ 4]  145 	ld c,a
   0089 26 00         [ 7]  146 	ld h,#0
   008B 3A 1D 01      [13]  147 	ld a,(#dimensiones2)
   008E 6F            [ 4]  148 	ld l,a
   008F 09            [11]  149 	add hl,bc
   0090 EB            [ 4]  150 	ex de,hl
   0091 26 00         [ 7]  151 	ld h,#0
   0093 3A 17 01      [13]  152 	ld a,(#coordenadas1)
   0096 6F            [ 4]  153 	ld l,a
   0097 B7            [ 4]  154 	or a
   0098 ED 52         [15]  155 	sbc hl,de
   009A FA A0 00      [10]  156 	jp m,#positivo1   ; Salta si HL < DE
   009D C3 A5 00      [10]  157 	jp comparacion2
   00A0                     158 positivo1:
   00A0 3E 01         [ 7]  159 	ld a,#1
   00A2 32 1F 01      [13]  160 	ld (#resultado1),a
                            161 ; x1 + w1 > x2
   00A5                     162 comparacion2:
   00A5 16 00         [ 7]  163 	ld d,#0
   00A7 3A 19 01      [13]  164 	ld a,(#dimensiones1)
   00AA 5F            [ 4]  165 	ld e,a
ASxxxx Assembler V02.00 + NoICE + SDCC mods  (Zilog Z80 / Hitachi HD64180), page 4.
Hexadecimal [16-Bits]



   00AB 19            [11]  166 	add hl,de
   00AC EB            [ 4]  167 	ex de,hl
   00AD 26 00         [ 7]  168 	ld h,#0
   00AF 3A 1B 01      [13]  169 	ld a,(#coordenadas2)
   00B2 6F            [ 4]  170 	ld l,a
   00B3 B7            [ 4]  171 	or a
   00B4 ED 52         [15]  172 	sbc hl,de
   00B6 F2 BC 00      [10]  173 	jp p,#positivo2   ; Salta si DE > HL
   00B9 C3 C1 00      [10]  174 	jp comparacion3
   00BC                     175 positivo2:
   00BC 3E 01         [ 7]  176 	ld a,#1
   00BE 32 20 01      [13]  177 	ld (#resultado2),a
                            178 ; y1 < y2 + h2
   00C1                     179 comparacion3:
   00C1 06 00         [ 7]  180 	ld b,#0
   00C3 3A 1C 01      [13]  181 	ld a,(#coordenadas2+1)
   00C6 4F            [ 4]  182 	ld c,a
   00C7 26 00         [ 7]  183 	ld h,#0
   00C9 3A 1E 01      [13]  184 	ld a,(#dimensiones2+1)
   00CC 6F            [ 4]  185 	ld l,a
   00CD 09            [11]  186 	add hl,bc
   00CE EB            [ 4]  187 	ex de,hl
   00CF 26 00         [ 7]  188 	ld h,#0
   00D1 3A 18 01      [13]  189 	ld a,(#coordenadas1+1)
   00D4 6F            [ 4]  190 	ld l,a
   00D5 B7            [ 4]  191 	or a
   00D6 ED 52         [15]  192 	sbc hl,de
   00D8 FA DE 00      [10]  193 	jp m,#positivo3   ; Salta si HL < DE
   00DB C3 E3 00      [10]  194 	jp comparacion4
   00DE                     195 positivo3:
   00DE 3E 01         [ 7]  196 	ld a,#1
   00E0 32 22 01      [13]  197 	ld (#resultado4),a
                            198 ; h1 + y1 > y2
   00E3                     199 comparacion4:
   00E3 16 00         [ 7]  200 	ld d,#0
   00E5 3A 1A 01      [13]  201 	ld a,(#dimensiones1+1)
   00E8 5F            [ 4]  202 	ld e,a
   00E9 19            [11]  203 	add hl,de
   00EA EB            [ 4]  204 	ex de,hl
   00EB 26 00         [ 7]  205 	ld h,#0
   00ED 3A 1C 01      [13]  206 	ld a,(#coordenadas2+1)
   00F0 6F            [ 4]  207 	ld l,a
   00F1 B7            [ 4]  208 	or a
   00F2 ED 52         [15]  209 	sbc hl,de
   00F4 F2 FA 00      [10]  210 	jp p,#positivo4   ; Salta si DE > HL
   00F7 C3 FF 00      [10]  211 	jp colision
   00FA                     212 positivo4:
   00FA 3E 01         [ 7]  213 	ld a,#1
   00FC 32 22 01      [13]  214 	ld (#resultado4),a
   00FF                     215 colision:
   00FF 06 04         [ 7]  216 	ld b,#4
   0101 11 1F 01      [10]  217 	ld de,#resultado1
   0104                     218 bucle:
   0104 1A            [ 7]  219 	ld a,(de)
   0105 B7            [ 4]  220 	or a
ASxxxx Assembler V02.00 + NoICE + SDCC mods  (Zilog Z80 / Hitachi HD64180), page 5.
Hexadecimal [16-Bits]



   0106 CA 12 01      [10]  221 	jp z, #nocol
   0109 10 F9         [13]  222 	djnz #bucle
   010B 26 00         [ 7]  223 	ld h,#0
   010D 2E 01         [ 7]  224 	ld l,#1
   010F C3 16 01      [10]  225 	jp salida
   0112                     226 nocol:
   0112 26 00         [ 7]  227 	ld h,#0
   0114 2E 00         [ 7]  228 	ld l,#0
   0116                     229 salida:
   0116 C9            [10]  230 	ret
   0117 00 00               231 	coordenadas1: .dw #0
   0119 00 00               232 	dimensiones1: .dw #0
   011B 00 00               233 	coordenadas2: .dw #0
   011D 00 00               234 	dimensiones2: .dw #0
   011F 00                  235 	resultado1: .db #0
   0120 00                  236 	resultado2: .db #0
   0121 00                  237 	resultado3: .db #0
   0122 00                  238 	resultado4: .db #0
